GAS LISTING sboxnet2usb.s 			page 1


   1               		.file	"sboxnet2usb.c"
   2               	__SP_H__ = 0x3e
   3               	__SP_L__ = 0x3d
   4               	__SREG__ = 0x3f
   5               	__tmp_reg__ = 0
   6               	__zero_reg__ = 1
   7               		.stabs	"/home/balagi/modellbahn/avr/sboxnet2usb/",100,0,2,.Ltext0
   8               		.stabs	"sboxnet2usb.c",100,0,2,.Ltext0
   9               		.text
  10               	.Ltext0:
  11               		.stabs	"gcc2_compiled.",60,0,0,0
  12               		.stabs	"int:t(0,1)=r(0,1);-32768;32767;",128,0,0,0
  13               		.stabs	"char:t(0,2)=r(0,2);0;127;",128,0,0,0
  14               		.stabs	"long int:t(0,3)=@s32;r(0,3);020000000000;017777777777;",128,0,0,0
  15               		.stabs	"unsigned int:t(0,4)=r(0,4);0;0177777;",128,0,0,0
  16               		.stabs	"long unsigned int:t(0,5)=@s32;r(0,5);0;037777777777;",128,0,0,0
  17               		.stabs	"__int128:t(0,6)=@s128;r(0,6);02000000000000000000000000000000000000000000;0177777777777777
  18               		.stabs	"__int128 unsigned:t(0,7)=@s128;r(0,7);0;03777777777777777777777777777777777777777777;",128
  19               		.stabs	"long long int:t(0,8)=@s64;r(0,8);01000000000000000000000;00777777777777777777777;",128,0,0
  20               		.stabs	"long long unsigned int:t(0,9)=@s64;r(0,9);0;01777777777777777777777;",128,0,0,0
  21               		.stabs	"short int:t(0,10)=r(0,10);-32768;32767;",128,0,0,0
  22               		.stabs	"short unsigned int:t(0,11)=r(0,11);0;0177777;",128,0,0,0
  23               		.stabs	"signed char:t(0,12)=@s8;r(0,12);-128;127;",128,0,0,0
  24               		.stabs	"unsigned char:t(0,13)=@s8;r(0,13);0;255;",128,0,0,0
  25               		.stabs	"float:t(0,14)=r(0,1);4;0;",128,0,0,0
  26               		.stabs	"double:t(0,15)=r(0,1);4;0;",128,0,0,0
  27               		.stabs	"long double:t(0,16)=r(0,1);4;0;",128,0,0,0
  28               		.stabs	"short _Fract:t(0,17)=r(0,1);1;0;",128,0,0,0
  29               		.stabs	"_Fract:t(0,18)=r(0,1);2;0;",128,0,0,0
  30               		.stabs	"long _Fract:t(0,19)=r(0,1);4;0;",128,0,0,0
  31               		.stabs	"long long _Fract:t(0,20)=r(0,1);8;0;",128,0,0,0
  32               		.stabs	"unsigned short _Fract:t(0,21)=r(0,1);1;0;",128,0,0,0
  33               		.stabs	"unsigned _Fract:t(0,22)=r(0,1);2;0;",128,0,0,0
  34               		.stabs	"unsigned long _Fract:t(0,23)=r(0,1);4;0;",128,0,0,0
  35               		.stabs	"unsigned long long _Fract:t(0,24)=r(0,1);8;0;",128,0,0,0
  36               		.stabs	"_Sat short _Fract:t(0,25)=r(0,1);1;0;",128,0,0,0
  37               		.stabs	"_Sat _Fract:t(0,26)=r(0,1);2;0;",128,0,0,0
  38               		.stabs	"_Sat long _Fract:t(0,27)=r(0,1);4;0;",128,0,0,0
  39               		.stabs	"_Sat long long _Fract:t(0,28)=r(0,1);8;0;",128,0,0,0
  40               		.stabs	"_Sat unsigned short _Fract:t(0,29)=r(0,1);1;0;",128,0,0,0
  41               		.stabs	"_Sat unsigned _Fract:t(0,30)=r(0,1);2;0;",128,0,0,0
  42               		.stabs	"_Sat unsigned long _Fract:t(0,31)=r(0,1);4;0;",128,0,0,0
  43               		.stabs	"_Sat unsigned long long _Fract:t(0,32)=r(0,1);8;0;",128,0,0,0
  44               		.stabs	"short _Accum:t(0,33)=r(0,1);2;0;",128,0,0,0
  45               		.stabs	"_Accum:t(0,34)=r(0,1);4;0;",128,0,0,0
  46               		.stabs	"long _Accum:t(0,35)=r(0,1);8;0;",128,0,0,0
  47               		.stabs	"long long _Accum:t(0,36)=r(0,1);8;0;",128,0,0,0
  48               		.stabs	"unsigned short _Accum:t(0,37)=r(0,1);2;0;",128,0,0,0
  49               		.stabs	"unsigned _Accum:t(0,38)=r(0,1);4;0;",128,0,0,0
  50               		.stabs	"unsigned long _Accum:t(0,39)=r(0,1);8;0;",128,0,0,0
  51               		.stabs	"unsigned long long _Accum:t(0,40)=r(0,1);8;0;",128,0,0,0
  52               		.stabs	"_Sat short _Accum:t(0,41)=r(0,1);2;0;",128,0,0,0
  53               		.stabs	"_Sat _Accum:t(0,42)=r(0,1);4;0;",128,0,0,0
  54               		.stabs	"_Sat long _Accum:t(0,43)=r(0,1);8;0;",128,0,0,0
  55               		.stabs	"_Sat long long _Accum:t(0,44)=r(0,1);8;0;",128,0,0,0
  56               		.stabs	"_Sat unsigned short _Accum:t(0,45)=r(0,1);2;0;",128,0,0,0
  57               		.stabs	"_Sat unsigned _Accum:t(0,46)=r(0,1);4;0;",128,0,0,0
GAS LISTING sboxnet2usb.s 			page 2


  58               		.stabs	"_Sat unsigned long _Accum:t(0,47)=r(0,1);8;0;",128,0,0,0
  59               		.stabs	"_Sat unsigned long long _Accum:t(0,48)=r(0,1);8;0;",128,0,0,0
  60               		.stabs	"void:t(0,49)=(0,49)",128,0,0,0
  61               		.stabs	"/usr/lib/gcc/avr/5.4.0/include/stdint.h",130,0,0,0
  62               		.stabs	"/usr/lib/avr/include/stdint.h",130,0,0,0
  63               		.stabs	"int8_t:t(2,1)=(0,12)",128,0,125,0
  64               		.stabs	"uint8_t:t(2,2)=(0,13)",128,0,126,0
  65               		.stabs	"int16_t:t(2,3)=(0,1)",128,0,127,0
  66               		.stabs	"uint16_t:t(2,4)=(0,4)",128,0,128,0
  67               		.stabs	"int32_t:t(2,5)=(0,3)",128,0,129,0
  68               		.stabs	"uint32_t:t(2,6)=(0,5)",128,0,130,0
  69               		.stabs	"int64_t:t(2,7)=(0,8)",128,0,132,0
  70               		.stabs	"uint64_t:t(2,8)=(0,9)",128,0,133,0
  71               		.stabs	"intptr_t:t(2,9)=(2,3)",128,0,146,0
  72               		.stabs	"uintptr_t:t(2,10)=(2,4)",128,0,151,0
  73               		.stabs	"int_least8_t:t(2,11)=(2,1)",128,0,163,0
  74               		.stabs	"uint_least8_t:t(2,12)=(2,2)",128,0,168,0
  75               		.stabs	"int_least16_t:t(2,13)=(2,3)",128,0,173,0
  76               		.stabs	"uint_least16_t:t(2,14)=(2,4)",128,0,178,0
  77               		.stabs	"int_least32_t:t(2,15)=(2,5)",128,0,183,0
  78               		.stabs	"uint_least32_t:t(2,16)=(2,6)",128,0,188,0
  79               		.stabs	"int_least64_t:t(2,17)=(2,7)",128,0,196,0
  80               		.stabs	"uint_least64_t:t(2,18)=(2,8)",128,0,203,0
  81               		.stabs	"int_fast8_t:t(2,19)=(2,1)",128,0,217,0
  82               		.stabs	"uint_fast8_t:t(2,20)=(2,2)",128,0,222,0
  83               		.stabs	"int_fast16_t:t(2,21)=(2,3)",128,0,227,0
  84               		.stabs	"uint_fast16_t:t(2,22)=(2,4)",128,0,232,0
  85               		.stabs	"int_fast32_t:t(2,23)=(2,5)",128,0,237,0
  86               		.stabs	"uint_fast32_t:t(2,24)=(2,6)",128,0,242,0
  87               		.stabs	"int_fast64_t:t(2,25)=(2,7)",128,0,250,0
  88               		.stabs	"uint_fast64_t:t(2,26)=(2,8)",128,0,257,0
  89               		.stabs	"intmax_t:t(2,27)=(2,7)",128,0,277,0
  90               		.stabs	"uintmax_t:t(2,28)=(2,8)",128,0,282,0
  91               		.stabn	162,0,0,0
  92               		.stabn	162,0,0,0
  93               		.stabs	"/usr/lib/avr/include/string.h",130,0,0,0
  94               		.stabs	"/usr/lib/gcc/avr/5.4.0/include/stddef.h",130,0,0,0
  95               		.stabs	"size_t:t(4,1)=(0,4)",128,0,216,0
  96               		.stabn	162,0,0,0
  97               		.stabn	162,0,0,0
  98               		.stabs	"/usr/lib/avr/include/avr/io.h",130,0,0,0
  99               		.stabs	"/usr/lib/avr/include/avr/sfr_defs.h",130,0,0,0
 100               		.stabs	"/usr/lib/avr/include/inttypes.h",130,0,0,0
 101               		.stabs	"int_farptr_t:t(7,1)=(2,5)",128,0,77,0
 102               		.stabs	"uint_farptr_t:t(7,2)=(2,6)",128,0,81,0
 103               		.stabn	162,0,0,0
 104               		.stabn	162,0,0,0
 105               		.stabs	"/usr/lib/avr/include/avr/fuse.h",130,0,0,0
 106               		.stabs	"__fuse_t:t(8,1)=(8,2)=s3low:(0,13),0,8;high:(0,13),8,8;extended:(0,13),16,8;;",128,0,244,0
 107               		.stabn	162,0,0,0
 108               		.stabn	162,0,0,0
 109               		.stabs	"/usr/lib/avr/include/avr/eeprom.h",130,0,0,0
 110               		.stabs	"/usr/lib/gcc/avr/5.4.0/include/stddef.h",130,0,0,0
 111               		.stabs	"ptrdiff_t:t(10,1)=(0,1)",128,0,149,0
 112               		.stabs	"wchar_t:t(10,2)=(0,1)",128,0,328,0
 113               		.stabn	162,0,0,0
 114               		.stabn	162,0,0,0
GAS LISTING sboxnet2usb.s 			page 3


 115               		.stabs	"../sboxnet/sboxnet.c",130,0,0,0
 116               		.stabs	"../sboxnet/sboxnet.h",130,0,0,0
 117               		.stabs	"../sboxnet/sboxnet-struct.h",130,0,0,0
 118               		.stabs	"opt:T(13,1)=s1len:(0,4),0,6;flags:(0,4),6,2;;",128,0,0,0
 119               		.stabs	"sboxnet_msg_header:T(13,2)=s5dstaddr:(2,2),0,8;srcaddr:(2,2),8,8;seq:(2,2),16,8;opt:(13,1)
 120               		.stabs	"sboxnet_msg_max:T(13,5)=s69msgh:(13,2),0,40;data:(13,6)=ar(13,4);0;63;(2,2),40,512;;",128,
 121               		.stabs	"sboxnet_debug_info:T(13,7)=s38recv_byte:(2,4),0,16;recv_msg_got:(2,4),16,16;recv_msg_fetch
 122               		.stabn	162,0,0,0
 123               		.stabs	"sboxnet_ring_buffer:T(12,1)=s8rd:(2,2),0,8;rd_count:(2,2),8,8;rd_rollback:(2,2),16,8;wr:(2
 124               		.stabs	"sboxnet_recv_ring_buffer:T(12,3)=s258rb:(12,1),0,64;buf:(12,4)=ar(13,4);0;249;(2,2),64,200
 125               		.stabs	"sboxnet_tmit_ring_buffer:T(12,5)=s258rb:(12,1),0,64;buf:(12,4),64,2000;;",128,0,0,0
 126               		.stabs	"sboxnet_device:T(12,6)=s563state:(2,2),0,8;flags:(2,2),8,8;retry_counter:(2,2),16,8;tmit_c
 127               		.stabn	162,0,0,0
 128               		.stabn	162,0,0,0
 129               		.stabs	"CMDS:T(0,50)=eCMD_SBOXNET_SET_MODE:48,CMD_SBOXNET_GET_STATUS:49,CMD_SBOXNET_RECEIVE:50,CMD
 130               		.stabs	"../avrutilslib/usb/usb.c",130,0,0,0
 131               		.stabs	"../avrutilslib/ringbuffer.h",130,0,0,0
 132               		.stabs	"ring_buffer:T(15,1)=s4rd:(2,2),0,8;wr:(2,2),8,8;size:(2,2),16,8;count:(2,2),24,8;buf:(15,2
 133               		.stabn	162,0,0,0
 134               		.stabs	"../avrutilslib/usb/usb.h",130,0,0,0
 135               		.stabs	"usb_device_desc:T(16,1)=s18bLength:(2,2),0,8;bDescriptorType:(2,2),8,8;bcdUSB:(2,4),16,16;
 136               		.stabs	"usb_device_qualifier:T(16,2)=s10bLength:(2,2),0,8;bDescriptorType:(2,2),8,8;bcdUSB:(2,4),1
 137               		.stabs	"usb_configuration_desc:T(16,3)=s9bLength:(2,2),0,8;bDescriptorType:(2,2),8,8;wTotalLength:
 138               		.stabs	"usb_other_speed_config_desc:T(16,4)=s9bLength:(2,2),0,8;bDescriptorType:(2,2),8,8;wTotalLe
 139               		.stabs	"usb_interface_desc:T(16,5)=s9bLength:(2,2),0,8;bDescriptorType:(2,2),8,8;bInterfaceNumber:
 140               		.stabs	"usb_endpoint_desc:T(16,6)=s7bLength:(2,2),0,8;bDescriptorType:(2,2),8,8;bEndpointAddress:(
 141               		.stabs	"usb_string_desc:T(16,7)=s2bLength:(2,2),0,8;bDescriptorType:(2,2),8,8;;",128,0,0,0
 142               		.stabs	"usb_device_request:T(16,8)=s8bmRequestType:(2,2),0,8;bRequest:(2,2),8,8;wValue:(2,4),16,16
 143               		.stabs	"get_string_func_t:t(16,9)=(16,10)=*(16,11)=f(2,2)",128,0,211,0
 144               		.stabs	"usb_dev:T(16,12)=s13state:(16,13)=B(2,2),0,8;cur_config:(2,2),8,8;pdesc_dev:(16,14)=*(16,1
 145               		.stabn	162,0,0,0
 146               		.stabn	162,0,0,0
 147               		.stabs	"serial:T(0,51)=s66desc:(16,7),0,16;str:(0,52)=ar(13,4);0;31;(10,2),16,512;;",128,0,0,0
 148               		.stabs	"Eeprom:T(0,53)=s66serialnumber:(0,51),0,528;;",128,0,0,0
 149               		.stabs	"config_1:T(0,54)=s18config:(16,3),0,72;interface:(16,5),72,72;;",128,0,0,0
 150               		.comm	g_sboxnet_addr,1,1
 151               		.comm	g_sboxnet,563,1
 152               		.stabs	"_crc_ibutton_update:f(2,2)",36,0,320,_crc_ibutton_update
 153               		.stabs	"__crc:p(2,2)",160,0,320,3
 154               		.stabs	"__data:p(2,2)",160,0,320,4
 155               		.type	_crc_ibutton_update, @function
 156               	_crc_ibutton_update:
 157               		.stabd	46,0,0
 158               		.stabs	"/usr/lib/avr/include/util/crc16.h",132,0,0,.Ltext1
 159               	.Ltext1:
 160               		.stabn	68,0,321,.LM0-.LFBB1
 161               	.LM0:
 162               	.LFBB1:
 163 0000 CF93      		push r28
 164 0002 DF93      		push r29
 165 0004 00D0      		rcall .
 166 0006 00D0      		rcall .
 167 0008 CDB7      		in r28,__SP_L__
 168 000a DEB7      		in r29,__SP_H__
 169               	/* prologue: function */
 170               	/* frame size = 4 */
 171               	/* stack size = 6 */
GAS LISTING sboxnet2usb.s 			page 4


 172               	.L__stack_usage = 6
 173 000c 8B83      		std Y+3,r24
 174 000e 6C83      		std Y+4,r22
 175               		.stabn	68,0,323,.LM1-.LFBB1
 176               	.LM1:
 177 0010 8B81      		ldd r24,Y+3
 178 0012 9C81      		ldd r25,Y+4
 179               	/* #APP */
 180               	 ;  323 "/usr/lib/avr/include/util/crc16.h" 1
 181 0014 8927      			eor	r24, r25
 182 0016 28E0      			ldi	r18, 8
 183 0018 9CE8      			ldi	r25, 0x8C
 184 001a 8695      		1:	lsr	r24
 185 001c 00F4      			brcc	2f
 186 001e 8927      			eor	r24, r25
 187 0020 2A95      		2:	dec	r18
 188 0022 01F4      			brne	1b
 189               		
 190               	 ;  0 "" 2
 191               	/* #NOAPP */
 192 0024 8B83      		std Y+3,r24
 193 0026 2983      		std Y+1,r18
 194 0028 9A83      		std Y+2,r25
 195               		.stabn	68,0,334,.LM2-.LFBB1
 196               	.LM2:
 197 002a 8B81      		ldd r24,Y+3
 198               	/* epilogue start */
 199               		.stabn	68,0,335,.LM3-.LFBB1
 200               	.LM3:
 201 002c 0F90      		pop __tmp_reg__
 202 002e 0F90      		pop __tmp_reg__
 203 0030 0F90      		pop __tmp_reg__
 204 0032 0F90      		pop __tmp_reg__
 205 0034 DF91      		pop r29
 206 0036 CF91      		pop r28
 207 0038 0895      		ret
 208               		.size	_crc_ibutton_update, .-_crc_ibutton_update
 209               		.stabs	"__i:(2,2)",128,0,322,1
 210               		.stabs	"__pattern:(2,2)",128,0,322,2
 211               		.stabn	192,0,0,.LFBB1-.LFBB1
 212               		.stabn	224,0,0,.Lscope1-.LFBB1
 213               	.Lscope1:
 214               		.stabs	"",36,0,0,.Lscope1-.LFBB1
 215               		.stabd	78,0,0
 216               		.stabs	"__iCliRetVal:f(2,2)",36,0,48,__iCliRetVal
 217               		.type	__iCliRetVal, @function
 218               	__iCliRetVal:
 219               		.stabd	46,0,0
 220               		.stabs	"/usr/lib/avr/include/util/atomic.h",132,0,0,.Ltext2
 221               	.Ltext2:
 222               		.stabn	68,0,49,.LM4-.LFBB2
 223               	.LM4:
 224               	.LFBB2:
 225 003a CF93      		push r28
 226 003c DF93      		push r29
 227 003e CDB7      		in r28,__SP_L__
 228 0040 DEB7      		in r29,__SP_H__
GAS LISTING sboxnet2usb.s 			page 5


 229               	/* prologue: function */
 230               	/* frame size = 0 */
 231               	/* stack size = 2 */
 232               	.L__stack_usage = 2
 233               		.stabn	68,0,50,.LM5-.LFBB2
 234               	.LM5:
 235               	/* #APP */
 236               	 ;  50 "/usr/lib/avr/include/util/atomic.h" 1
 237 0042 F894      		cli
 238               	 ;  0 "" 2
 239               		.stabn	68,0,51,.LM6-.LFBB2
 240               	.LM6:
 241               	/* #NOAPP */
 242 0044 81E0      		ldi r24,lo8(1)
 243               	/* epilogue start */
 244               		.stabn	68,0,52,.LM7-.LFBB2
 245               	.LM7:
 246 0046 DF91      		pop r29
 247 0048 CF91      		pop r28
 248 004a 0895      		ret
 249               		.size	__iCliRetVal, .-__iCliRetVal
 250               	.Lscope2:
 251               		.stabs	"",36,0,0,.Lscope2-.LFBB2
 252               		.stabd	78,0,0
 253               		.stabs	"__iRestore:f(0,49)",36,0,68,__iRestore
 254               		.stabs	"__s:p(0,55)=*(0,56)=k(2,2)",160,0,68,1
 255               		.type	__iRestore, @function
 256               	__iRestore:
 257               		.stabd	46,0,0
 258               		.stabn	68,0,69,.LM8-.LFBB3
 259               	.LM8:
 260               	.LFBB3:
 261 004c CF93      		push r28
 262 004e DF93      		push r29
 263 0050 00D0      		rcall .
 264 0052 CDB7      		in r28,__SP_L__
 265 0054 DEB7      		in r29,__SP_H__
 266               	/* prologue: function */
 267               	/* frame size = 2 */
 268               	/* stack size = 4 */
 269               	.L__stack_usage = 4
 270 0056 9A83      		std Y+2,r25
 271 0058 8983      		std Y+1,r24
 272               		.stabn	68,0,70,.LM9-.LFBB3
 273               	.LM9:
 274 005a 8FE5      		ldi r24,lo8(95)
 275 005c 90E0      		ldi r25,0
 276 005e 2981      		ldd r18,Y+1
 277 0060 3A81      		ldd r19,Y+2
 278 0062 F901      		movw r30,r18
 279 0064 2081      		ld r18,Z
 280 0066 FC01      		movw r30,r24
 281 0068 2083      		st Z,r18
 282               		.stabn	68,0,71,.LM10-.LFBB3
 283               	.LM10:
 284               		.stabn	68,0,72,.LM11-.LFBB3
 285               	.LM11:
GAS LISTING sboxnet2usb.s 			page 6


 286 006a 0000      		nop
 287               	/* epilogue start */
 288 006c 0F90      		pop __tmp_reg__
 289 006e 0F90      		pop __tmp_reg__
 290 0070 DF91      		pop r29
 291 0072 CF91      		pop r28
 292 0074 0895      		ret
 293               		.size	__iRestore, .-__iRestore
 294               	.Lscope3:
 295               		.stabs	"",36,0,0,.Lscope3-.LFBB3
 296               		.stabd	78,0,0
 297               		.stabs	"prng_xorshift8:f(2,2)",36,0,25,prng_xorshift8
 298               		.stabs	"x:p(2,2)",160,0,25,1
 299               		.type	prng_xorshift8, @function
 300               	prng_xorshift8:
 301               		.stabd	46,0,0
 302               		.stabs	"../avrutilslib/random.h",132,0,0,.Ltext3
 303               	.Ltext3:
 304               		.stabn	68,0,25,.LM12-.LFBB4
 305               	.LM12:
 306               	.LFBB4:
 307 0076 CF93      		push r28
 308 0078 DF93      		push r29
 309 007a 1F92      		push __zero_reg__
 310 007c CDB7      		in r28,__SP_L__
 311 007e DEB7      		in r29,__SP_H__
 312               	/* prologue: function */
 313               	/* frame size = 1 */
 314               	/* stack size = 3 */
 315               	.L__stack_usage = 3
 316 0080 8983      		std Y+1,r24
 317               		.stabn	68,0,26,.LM13-.LFBB4
 318               	.LM13:
 319 0082 8981      		ldd r24,Y+1
 320 0084 882F      		mov r24,r24
 321 0086 90E0      		ldi r25,0
 322 0088 880F      		lsl r24
 323 008a 991F      		rol r25
 324 008c 982F      		mov r25,r24
 325 008e 8981      		ldd r24,Y+1
 326 0090 8927      		eor r24,r25
 327 0092 8983      		std Y+1,r24
 328               		.stabn	68,0,27,.LM14-.LFBB4
 329               	.LM14:
 330 0094 8981      		ldd r24,Y+1
 331 0096 8695      		lsr r24
 332 0098 9981      		ldd r25,Y+1
 333 009a 8927      		eor r24,r25
 334 009c 8983      		std Y+1,r24
 335               		.stabn	68,0,28,.LM15-.LFBB4
 336               	.LM15:
 337 009e 8981      		ldd r24,Y+1
 338 00a0 880F      		lsl r24
 339 00a2 880F      		lsl r24
 340 00a4 982F      		mov r25,r24
 341 00a6 8981      		ldd r24,Y+1
 342 00a8 8927      		eor r24,r25
GAS LISTING sboxnet2usb.s 			page 7


 343 00aa 8983      		std Y+1,r24
 344               		.stabn	68,0,29,.LM16-.LFBB4
 345               	.LM16:
 346 00ac 8981      		ldd r24,Y+1
 347               	/* epilogue start */
 348               		.stabn	68,0,30,.LM17-.LFBB4
 349               	.LM17:
 350 00ae 0F90      		pop __tmp_reg__
 351 00b0 DF91      		pop r29
 352 00b2 CF91      		pop r28
 353 00b4 0895      		ret
 354               		.size	prng_xorshift8, .-prng_xorshift8
 355               	.Lscope4:
 356               		.stabs	"",36,0,0,.Lscope4-.LFBB4
 357               		.stabd	78,0,0
 358               		.stabs	"sboxnet_debug_inc_recverrors:f(0,49)",36,0,251,sboxnet_debug_inc_recverrors
 359               		.type	sboxnet_debug_inc_recverrors, @function
 360               	sboxnet_debug_inc_recverrors:
 361               		.stabd	46,0,0
 362               		.stabs	"../sboxnet/sboxnet.c",132,0,0,.Ltext4
 363               	.Ltext4:
 364               		.stabn	68,0,251,.LM18-.LFBB5
 365               	.LM18:
 366               	.LFBB5:
 367 00b6 CF93      		push r28
 368 00b8 DF93      		push r29
 369 00ba CDB7      		in r28,__SP_L__
 370 00bc DEB7      		in r29,__SP_H__
 371               	/* prologue: function */
 372               	/* frame size = 0 */
 373               	/* stack size = 2 */
 374               	.L__stack_usage = 2
 375               		.stabn	68,0,252,.LM19-.LFBB5
 376               	.LM19:
 377 00be 8091 0000 		lds r24,g_sboxnet+547
 378 00c2 9091 0000 		lds r25,g_sboxnet+547+1
 379 00c6 0196      		adiw r24,1
 380 00c8 9093 0000 		sts g_sboxnet+547+1,r25
 381 00cc 8093 0000 		sts g_sboxnet+547,r24
 382               		.stabn	68,0,253,.LM20-.LFBB5
 383               	.LM20:
 384 00d0 0000      		nop
 385               	/* epilogue start */
 386 00d2 DF91      		pop r29
 387 00d4 CF91      		pop r28
 388 00d6 0895      		ret
 389               		.size	sboxnet_debug_inc_recverrors, .-sboxnet_debug_inc_recverrors
 390               	.Lscope5:
 391               		.stabs	"",36,0,0,.Lscope5-.LFBB5
 392               		.stabd	78,0,0
 393               		.stabs	"sboxnet_debug_inc_recverr_dor:f(0,49)",36,0,255,sboxnet_debug_inc_recverr_dor
 394               		.type	sboxnet_debug_inc_recverr_dor, @function
 395               	sboxnet_debug_inc_recverr_dor:
 396               		.stabd	46,0,0
 397               		.stabn	68,0,255,.LM21-.LFBB6
 398               	.LM21:
 399               	.LFBB6:
GAS LISTING sboxnet2usb.s 			page 8


 400 00d8 CF93      		push r28
 401 00da DF93      		push r29
 402 00dc CDB7      		in r28,__SP_L__
 403 00de DEB7      		in r29,__SP_H__
 404               	/* prologue: function */
 405               	/* frame size = 0 */
 406               	/* stack size = 2 */
 407               	.L__stack_usage = 2
 408               		.stabn	68,0,256,.LM22-.LFBB6
 409               	.LM22:
 410 00e0 8091 0000 		lds r24,g_sboxnet+553
 411 00e4 9091 0000 		lds r25,g_sboxnet+553+1
 412 00e8 0196      		adiw r24,1
 413 00ea 9093 0000 		sts g_sboxnet+553+1,r25
 414 00ee 8093 0000 		sts g_sboxnet+553,r24
 415               		.stabn	68,0,257,.LM23-.LFBB6
 416               	.LM23:
 417 00f2 0000      		nop
 418               	/* epilogue start */
 419 00f4 DF91      		pop r29
 420 00f6 CF91      		pop r28
 421 00f8 0895      		ret
 422               		.size	sboxnet_debug_inc_recverr_dor, .-sboxnet_debug_inc_recverr_dor
 423               	.Lscope6:
 424               		.stabs	"",36,0,0,.Lscope6-.LFBB6
 425               		.stabd	78,0,0
 426               		.stabs	"sboxnet_debug_inc_recv_byte:f(0,49)",36,0,259,sboxnet_debug_inc_recv_byte
 427               		.type	sboxnet_debug_inc_recv_byte, @function
 428               	sboxnet_debug_inc_recv_byte:
 429               		.stabd	46,0,0
 430               		.stabn	68,0,259,.LM24-.LFBB7
 431               	.LM24:
 432               	.LFBB7:
 433 00fa CF93      		push r28
 434 00fc DF93      		push r29
 435 00fe CDB7      		in r28,__SP_L__
 436 0100 DEB7      		in r29,__SP_H__
 437               	/* prologue: function */
 438               	/* frame size = 0 */
 439               	/* stack size = 2 */
 440               	.L__stack_usage = 2
 441               		.stabn	68,0,260,.LM25-.LFBB7
 442               	.LM25:
 443 0102 8091 0000 		lds r24,g_sboxnet+525
 444 0106 9091 0000 		lds r25,g_sboxnet+525+1
 445 010a 0196      		adiw r24,1
 446 010c 9093 0000 		sts g_sboxnet+525+1,r25
 447 0110 8093 0000 		sts g_sboxnet+525,r24
 448               		.stabn	68,0,261,.LM26-.LFBB7
 449               	.LM26:
 450 0114 0000      		nop
 451               	/* epilogue start */
 452 0116 DF91      		pop r29
 453 0118 CF91      		pop r28
 454 011a 0895      		ret
 455               		.size	sboxnet_debug_inc_recv_byte, .-sboxnet_debug_inc_recv_byte
 456               	.Lscope7:
GAS LISTING sboxnet2usb.s 			page 9


 457               		.stabs	"",36,0,0,.Lscope7-.LFBB7
 458               		.stabd	78,0,0
 459               		.stabs	"sboxnet_crc8_init:f(2,2)",36,0,268,sboxnet_crc8_init
 460               		.type	sboxnet_crc8_init, @function
 461               	sboxnet_crc8_init:
 462               		.stabd	46,0,0
 463               		.stabn	68,0,268,.LM27-.LFBB8
 464               	.LM27:
 465               	.LFBB8:
 466 011c CF93      		push r28
 467 011e DF93      		push r29
 468 0120 CDB7      		in r28,__SP_L__
 469 0122 DEB7      		in r29,__SP_H__
 470               	/* prologue: function */
 471               	/* frame size = 0 */
 472               	/* stack size = 2 */
 473               	.L__stack_usage = 2
 474               		.stabn	68,0,269,.LM28-.LFBB8
 475               	.LM28:
 476 0124 8FEF      		ldi r24,lo8(-1)
 477               	/* epilogue start */
 478               		.stabn	68,0,270,.LM29-.LFBB8
 479               	.LM29:
 480 0126 DF91      		pop r29
 481 0128 CF91      		pop r28
 482 012a 0895      		ret
 483               		.size	sboxnet_crc8_init, .-sboxnet_crc8_init
 484               	.Lscope8:
 485               		.stabs	"",36,0,0,.Lscope8-.LFBB8
 486               		.stabd	78,0,0
 487               		.stabs	"sboxnet_crc8_add:f(2,2)",36,0,274,sboxnet_crc8_add
 488               		.stabs	"crc:p(2,2)",160,0,274,1
 489               		.stabs	"v:p(2,2)",160,0,274,2
 490               		.type	sboxnet_crc8_add, @function
 491               	sboxnet_crc8_add:
 492               		.stabd	46,0,0
 493               		.stabn	68,0,274,.LM30-.LFBB9
 494               	.LM30:
 495               	.LFBB9:
 496 012c CF93      		push r28
 497 012e DF93      		push r29
 498 0130 00D0      		rcall .
 499 0132 CDB7      		in r28,__SP_L__
 500 0134 DEB7      		in r29,__SP_H__
 501               	/* prologue: function */
 502               	/* frame size = 2 */
 503               	/* stack size = 4 */
 504               	.L__stack_usage = 4
 505 0136 8983      		std Y+1,r24
 506 0138 6A83      		std Y+2,r22
 507               		.stabn	68,0,275,.LM31-.LFBB9
 508               	.LM31:
 509 013a 6A81      		ldd r22,Y+2
 510 013c 8981      		ldd r24,Y+1
 511 013e 0E94 0000 		call _crc_ibutton_update
 512               	/* epilogue start */
 513               		.stabn	68,0,276,.LM32-.LFBB9
GAS LISTING sboxnet2usb.s 			page 10


 514               	.LM32:
 515 0142 0F90      		pop __tmp_reg__
 516 0144 0F90      		pop __tmp_reg__
 517 0146 DF91      		pop r29
 518 0148 CF91      		pop r28
 519 014a 0895      		ret
 520               		.size	sboxnet_crc8_add, .-sboxnet_crc8_add
 521               	.Lscope9:
 522               		.stabs	"",36,0,0,.Lscope9-.LFBB9
 523               		.stabd	78,0,0
 524               		.stabs	"sboxnet_crc8_ok:f(2,2)",36,0,279,sboxnet_crc8_ok
 525               		.stabs	"crc:p(2,2)",160,0,279,1
 526               		.type	sboxnet_crc8_ok, @function
 527               	sboxnet_crc8_ok:
 528               		.stabd	46,0,0
 529               		.stabn	68,0,279,.LM33-.LFBB10
 530               	.LM33:
 531               	.LFBB10:
 532 014c CF93      		push r28
 533 014e DF93      		push r29
 534 0150 1F92      		push __zero_reg__
 535 0152 CDB7      		in r28,__SP_L__
 536 0154 DEB7      		in r29,__SP_H__
 537               	/* prologue: function */
 538               	/* frame size = 1 */
 539               	/* stack size = 3 */
 540               	.L__stack_usage = 3
 541 0156 8983      		std Y+1,r24
 542               		.stabn	68,0,280,.LM34-.LFBB10
 543               	.LM34:
 544 0158 81E0      		ldi r24,lo8(1)
 545 015a 9981      		ldd r25,Y+1
 546 015c 9923      		tst r25
 547 015e 01F0      		breq .L16
 548 0160 80E0      		ldi r24,0
 549               	.L16:
 550               	/* epilogue start */
 551               		.stabn	68,0,281,.LM35-.LFBB10
 552               	.LM35:
 553 0162 0F90      		pop __tmp_reg__
 554 0164 DF91      		pop r29
 555 0166 CF91      		pop r28
 556 0168 0895      		ret
 557               		.size	sboxnet_crc8_ok, .-sboxnet_crc8_ok
 558               	.Lscope10:
 559               		.stabs	"",36,0,0,.Lscope10-.LFBB10
 560               		.stabd	78,0,0
 561               		.stabs	"sboxnet_prandom:f(2,2)",36,0,287,sboxnet_prandom
 562               		.type	sboxnet_prandom, @function
 563               	sboxnet_prandom:
 564               		.stabd	46,0,0
 565               		.stabn	68,0,287,.LM36-.LFBB11
 566               	.LM36:
 567               	.LFBB11:
 568 016a CF93      		push r28
 569 016c DF93      		push r29
 570 016e CDB7      		in r28,__SP_L__
GAS LISTING sboxnet2usb.s 			page 11


 571 0170 DEB7      		in r29,__SP_H__
 572               	/* prologue: function */
 573               	/* frame size = 0 */
 574               	/* stack size = 2 */
 575               	.L__stack_usage = 2
 576               		.stabn	68,0,288,.LM37-.LFBB11
 577               	.LM37:
 578 0172 8091 0000 		lds r24,g_sboxnet+8
 579 0176 0E94 0000 		call prng_xorshift8
 580 017a 8093 0000 		sts g_sboxnet+8,r24
 581               		.stabn	68,0,289,.LM38-.LFBB11
 582               	.LM38:
 583 017e 8091 0000 		lds r24,g_sboxnet+8
 584               	/* epilogue start */
 585               		.stabn	68,0,290,.LM39-.LFBB11
 586               	.LM39:
 587 0182 DF91      		pop r29
 588 0184 CF91      		pop r28
 589 0186 0895      		ret
 590               		.size	sboxnet_prandom, .-sboxnet_prandom
 591               	.Lscope11:
 592               		.stabs	"",36,0,0,.Lscope11-.LFBB11
 593               		.stabd	78,0,0
 594               		.stabs	"sboxnet_rb_init:f(0,49)",36,0,299,sboxnet_rb_init
 595               		.stabs	"rb:p(0,57)=*(12,1)",160,0,299,1
 596               		.stabs	"size:p(2,2)",160,0,299,3
 597               		.type	sboxnet_rb_init, @function
 598               	sboxnet_rb_init:
 599               		.stabd	46,0,0
 600               		.stabn	68,0,299,.LM40-.LFBB12
 601               	.LM40:
 602               	.LFBB12:
 603 0188 CF93      		push r28
 604 018a DF93      		push r29
 605 018c 00D0      		rcall .
 606 018e 1F92      		push __zero_reg__
 607 0190 CDB7      		in r28,__SP_L__
 608 0192 DEB7      		in r29,__SP_H__
 609               	/* prologue: function */
 610               	/* frame size = 3 */
 611               	/* stack size = 5 */
 612               	.L__stack_usage = 5
 613 0194 9A83      		std Y+2,r25
 614 0196 8983      		std Y+1,r24
 615 0198 6B83      		std Y+3,r22
 616               		.stabn	68,0,300,.LM41-.LFBB12
 617               	.LM41:
 618 019a 8981      		ldd r24,Y+1
 619 019c 9A81      		ldd r25,Y+2
 620 019e FC01      		movw r30,r24
 621 01a0 1082      		st Z,__zero_reg__
 622               		.stabn	68,0,301,.LM42-.LFBB12
 623               	.LM42:
 624 01a2 8981      		ldd r24,Y+1
 625 01a4 9A81      		ldd r25,Y+2
 626 01a6 FC01      		movw r30,r24
 627 01a8 1182      		std Z+1,__zero_reg__
GAS LISTING sboxnet2usb.s 			page 12


 628               		.stabn	68,0,302,.LM43-.LFBB12
 629               	.LM43:
 630 01aa 8981      		ldd r24,Y+1
 631 01ac 9A81      		ldd r25,Y+2
 632 01ae FC01      		movw r30,r24
 633 01b0 1282      		std Z+2,__zero_reg__
 634               		.stabn	68,0,303,.LM44-.LFBB12
 635               	.LM44:
 636 01b2 8981      		ldd r24,Y+1
 637 01b4 9A81      		ldd r25,Y+2
 638 01b6 FC01      		movw r30,r24
 639 01b8 1382      		std Z+3,__zero_reg__
 640               		.stabn	68,0,304,.LM45-.LFBB12
 641               	.LM45:
 642 01ba 8981      		ldd r24,Y+1
 643 01bc 9A81      		ldd r25,Y+2
 644 01be FC01      		movw r30,r24
 645 01c0 1482      		std Z+4,__zero_reg__
 646               		.stabn	68,0,305,.LM46-.LFBB12
 647               	.LM46:
 648 01c2 8981      		ldd r24,Y+1
 649 01c4 9A81      		ldd r25,Y+2
 650 01c6 FC01      		movw r30,r24
 651 01c8 1582      		std Z+5,__zero_reg__
 652               		.stabn	68,0,306,.LM47-.LFBB12
 653               	.LM47:
 654 01ca 8981      		ldd r24,Y+1
 655 01cc 9A81      		ldd r25,Y+2
 656 01ce FC01      		movw r30,r24
 657 01d0 1682      		std Z+6,__zero_reg__
 658               		.stabn	68,0,307,.LM48-.LFBB12
 659               	.LM48:
 660 01d2 8981      		ldd r24,Y+1
 661 01d4 9A81      		ldd r25,Y+2
 662 01d6 2B81      		ldd r18,Y+3
 663 01d8 FC01      		movw r30,r24
 664 01da 2783      		std Z+7,r18
 665               		.stabn	68,0,308,.LM49-.LFBB12
 666               	.LM49:
 667 01dc 0000      		nop
 668               	/* epilogue start */
 669 01de 0F90      		pop __tmp_reg__
 670 01e0 0F90      		pop __tmp_reg__
 671 01e2 0F90      		pop __tmp_reg__
 672 01e4 DF91      		pop r29
 673 01e6 CF91      		pop r28
 674 01e8 0895      		ret
 675               		.size	sboxnet_rb_init, .-sboxnet_rb_init
 676               	.Lscope12:
 677               		.stabs	"",36,0,0,.Lscope12-.LFBB12
 678               		.stabd	78,0,0
 679               		.stabs	"sboxnet_rb_getcount:f(2,2)",36,0,312,sboxnet_rb_getcount
 680               		.stabs	"rb:p(0,57)",160,0,312,1
 681               		.type	sboxnet_rb_getcount, @function
 682               	sboxnet_rb_getcount:
 683               		.stabd	46,0,0
 684               		.stabn	68,0,312,.LM50-.LFBB13
GAS LISTING sboxnet2usb.s 			page 13


 685               	.LM50:
 686               	.LFBB13:
 687 01ea CF93      		push r28
 688 01ec DF93      		push r29
 689 01ee 00D0      		rcall .
 690 01f0 CDB7      		in r28,__SP_L__
 691 01f2 DEB7      		in r29,__SP_H__
 692               	/* prologue: function */
 693               	/* frame size = 2 */
 694               	/* stack size = 4 */
 695               	.L__stack_usage = 4
 696 01f4 9A83      		std Y+2,r25
 697 01f6 8983      		std Y+1,r24
 698               		.stabn	68,0,313,.LM51-.LFBB13
 699               	.LM51:
 700 01f8 8981      		ldd r24,Y+1
 701 01fa 9A81      		ldd r25,Y+2
 702 01fc FC01      		movw r30,r24
 703 01fe 8681      		ldd r24,Z+6
 704               	/* epilogue start */
 705               		.stabn	68,0,314,.LM52-.LFBB13
 706               	.LM52:
 707 0200 0F90      		pop __tmp_reg__
 708 0202 0F90      		pop __tmp_reg__
 709 0204 DF91      		pop r29
 710 0206 CF91      		pop r28
 711 0208 0895      		ret
 712               		.size	sboxnet_rb_getcount, .-sboxnet_rb_getcount
 713               	.Lscope13:
 714               		.stabs	"",36,0,0,.Lscope13-.LFBB13
 715               		.stabd	78,0,0
 716               		.stabs	"sboxnet_rb_getfree:f(2,2)",36,0,317,sboxnet_rb_getfree
 717               		.stabs	"rb:p(0,57)",160,0,317,1
 718               		.type	sboxnet_rb_getfree, @function
 719               	sboxnet_rb_getfree:
 720               		.stabd	46,0,0
 721               		.stabn	68,0,317,.LM53-.LFBB14
 722               	.LM53:
 723               	.LFBB14:
 724 020a CF93      		push r28
 725 020c DF93      		push r29
 726 020e 00D0      		rcall .
 727 0210 CDB7      		in r28,__SP_L__
 728 0212 DEB7      		in r29,__SP_H__
 729               	/* prologue: function */
 730               	/* frame size = 2 */
 731               	/* stack size = 4 */
 732               	.L__stack_usage = 4
 733 0214 9A83      		std Y+2,r25
 734 0216 8983      		std Y+1,r24
 735               		.stabn	68,0,318,.LM54-.LFBB14
 736               	.LM54:
 737 0218 8981      		ldd r24,Y+1
 738 021a 9A81      		ldd r25,Y+2
 739 021c FC01      		movw r30,r24
 740 021e 2781      		ldd r18,Z+7
 741 0220 8981      		ldd r24,Y+1
GAS LISTING sboxnet2usb.s 			page 14


 742 0222 9A81      		ldd r25,Y+2
 743 0224 FC01      		movw r30,r24
 744 0226 8681      		ldd r24,Z+6
 745 0228 281B      		sub r18,r24
 746 022a 8981      		ldd r24,Y+1
 747 022c 9A81      		ldd r25,Y+2
 748 022e FC01      		movw r30,r24
 749 0230 8481      		ldd r24,Z+4
 750 0232 F22F      		mov r31,r18
 751 0234 F81B      		sub r31,r24
 752 0236 8F2F      		mov r24,r31
 753               	/* epilogue start */
 754               		.stabn	68,0,319,.LM55-.LFBB14
 755               	.LM55:
 756 0238 0F90      		pop __tmp_reg__
 757 023a 0F90      		pop __tmp_reg__
 758 023c DF91      		pop r29
 759 023e CF91      		pop r28
 760 0240 0895      		ret
 761               		.size	sboxnet_rb_getfree, .-sboxnet_rb_getfree
 762               	.Lscope14:
 763               		.stabs	"",36,0,0,.Lscope14-.LFBB14
 764               		.stabd	78,0,0
 765               		.stabs	"sboxnet_rb_write_commit:f(0,49)",36,0,323,sboxnet_rb_write_commit
 766               		.stabs	"rb:p(0,57)",160,0,323,1
 767               		.type	sboxnet_rb_write_commit, @function
 768               	sboxnet_rb_write_commit:
 769               		.stabd	46,0,0
 770               		.stabn	68,0,323,.LM56-.LFBB15
 771               	.LM56:
 772               	.LFBB15:
 773 0242 CF93      		push r28
 774 0244 DF93      		push r29
 775 0246 00D0      		rcall .
 776 0248 CDB7      		in r28,__SP_L__
 777 024a DEB7      		in r29,__SP_H__
 778               	/* prologue: function */
 779               	/* frame size = 2 */
 780               	/* stack size = 4 */
 781               	.L__stack_usage = 4
 782 024c 9A83      		std Y+2,r25
 783 024e 8983      		std Y+1,r24
 784               		.stabn	68,0,326,.LM57-.LFBB15
 785               	.LM57:
 786 0250 8981      		ldd r24,Y+1
 787 0252 9A81      		ldd r25,Y+2
 788 0254 FC01      		movw r30,r24
 789 0256 8681      		ldd r24,Z+6
 790 0258 282F      		mov r18,r24
 791 025a 30E0      		ldi r19,0
 792 025c 8981      		ldd r24,Y+1
 793 025e 9A81      		ldd r25,Y+2
 794 0260 FC01      		movw r30,r24
 795 0262 8481      		ldd r24,Z+4
 796 0264 882F      		mov r24,r24
 797 0266 90E0      		ldi r25,0
 798 0268 280F      		add r18,r24
GAS LISTING sboxnet2usb.s 			page 15


 799 026a 391F      		adc r19,r25
 800 026c 8981      		ldd r24,Y+1
 801 026e 9A81      		ldd r25,Y+2
 802 0270 FC01      		movw r30,r24
 803 0272 8781      		ldd r24,Z+7
 804 0274 882F      		mov r24,r24
 805 0276 90E0      		ldi r25,0
 806 0278 8217      		cp r24,r18
 807 027a 9307      		cpc r25,r19
 808 027c 04F4      		brge .L26
 809               		.stabn	68,0,327,.LM58-.LFBB15
 810               	.LM58:
 811 027e 8091 0000 		lds r24,g_sboxnet+1
 812 0282 8460      		ori r24,lo8(4)
 813 0284 8093 0000 		sts g_sboxnet+1,r24
 814               	.L26:
 815               		.stabn	68,0,331,.LM59-.LFBB15
 816               	.LM59:
 817 0288 8981      		ldd r24,Y+1
 818 028a 9A81      		ldd r25,Y+2
 819 028c FC01      		movw r30,r24
 820 028e 2681      		ldd r18,Z+6
 821 0290 8981      		ldd r24,Y+1
 822 0292 9A81      		ldd r25,Y+2
 823 0294 FC01      		movw r30,r24
 824 0296 8481      		ldd r24,Z+4
 825 0298 280F      		add r18,r24
 826 029a 8981      		ldd r24,Y+1
 827 029c 9A81      		ldd r25,Y+2
 828 029e FC01      		movw r30,r24
 829 02a0 2683      		std Z+6,r18
 830               		.stabn	68,0,333,.LM60-.LFBB15
 831               	.LM60:
 832 02a2 8981      		ldd r24,Y+1
 833 02a4 9A81      		ldd r25,Y+2
 834 02a6 FC01      		movw r30,r24
 835 02a8 1482      		std Z+4,__zero_reg__
 836               		.stabn	68,0,335,.LM61-.LFBB15
 837               	.LM61:
 838 02aa 8981      		ldd r24,Y+1
 839 02ac 9A81      		ldd r25,Y+2
 840 02ae FC01      		movw r30,r24
 841 02b0 2381      		ldd r18,Z+3
 842 02b2 8981      		ldd r24,Y+1
 843 02b4 9A81      		ldd r25,Y+2
 844 02b6 FC01      		movw r30,r24
 845 02b8 2583      		std Z+5,r18
 846               		.stabn	68,0,336,.LM62-.LFBB15
 847               	.LM62:
 848 02ba 0000      		nop
 849               	/* epilogue start */
 850 02bc 0F90      		pop __tmp_reg__
 851 02be 0F90      		pop __tmp_reg__
 852 02c0 DF91      		pop r29
 853 02c2 CF91      		pop r28
 854 02c4 0895      		ret
 855               		.size	sboxnet_rb_write_commit, .-sboxnet_rb_write_commit
GAS LISTING sboxnet2usb.s 			page 16


 856               	.Lscope15:
 857               		.stabs	"",36,0,0,.Lscope15-.LFBB15
 858               		.stabd	78,0,0
 859               		.stabs	"sboxnet_rb_write_rollback:f(0,49)",36,0,340,sboxnet_rb_write_rollback
 860               		.stabs	"rb:p(0,57)",160,0,340,1
 861               		.type	sboxnet_rb_write_rollback, @function
 862               	sboxnet_rb_write_rollback:
 863               		.stabd	46,0,0
 864               		.stabn	68,0,340,.LM63-.LFBB16
 865               	.LM63:
 866               	.LFBB16:
 867 02c6 CF93      		push r28
 868 02c8 DF93      		push r29
 869 02ca 00D0      		rcall .
 870 02cc CDB7      		in r28,__SP_L__
 871 02ce DEB7      		in r29,__SP_H__
 872               	/* prologue: function */
 873               	/* frame size = 2 */
 874               	/* stack size = 4 */
 875               	.L__stack_usage = 4
 876 02d0 9A83      		std Y+2,r25
 877 02d2 8983      		std Y+1,r24
 878               		.stabn	68,0,341,.LM64-.LFBB16
 879               	.LM64:
 880 02d4 8981      		ldd r24,Y+1
 881 02d6 9A81      		ldd r25,Y+2
 882 02d8 FC01      		movw r30,r24
 883 02da 1482      		std Z+4,__zero_reg__
 884               		.stabn	68,0,342,.LM65-.LFBB16
 885               	.LM65:
 886 02dc 8981      		ldd r24,Y+1
 887 02de 9A81      		ldd r25,Y+2
 888 02e0 FC01      		movw r30,r24
 889 02e2 2581      		ldd r18,Z+5
 890 02e4 8981      		ldd r24,Y+1
 891 02e6 9A81      		ldd r25,Y+2
 892 02e8 FC01      		movw r30,r24
 893 02ea 2383      		std Z+3,r18
 894               		.stabn	68,0,343,.LM66-.LFBB16
 895               	.LM66:
 896 02ec 0000      		nop
 897               	/* epilogue start */
 898 02ee 0F90      		pop __tmp_reg__
 899 02f0 0F90      		pop __tmp_reg__
 900 02f2 DF91      		pop r29
 901 02f4 CF91      		pop r28
 902 02f6 0895      		ret
 903               		.size	sboxnet_rb_write_rollback, .-sboxnet_rb_write_rollback
 904               	.Lscope16:
 905               		.stabs	"",36,0,0,.Lscope16-.LFBB16
 906               		.stabd	78,0,0
 907               		.stabs	"sboxnet_rb_write:f(2,2)",36,0,347,sboxnet_rb_write
 908               		.stabs	"rb:p(0,57)",160,0,347,2
 909               		.stabs	"a_v:p(2,2)",160,0,347,4
 910               		.type	sboxnet_rb_write, @function
 911               	sboxnet_rb_write:
 912               		.stabd	46,0,0
GAS LISTING sboxnet2usb.s 			page 17


 913               		.stabn	68,0,347,.LM67-.LFBB17
 914               	.LM67:
 915               	.LFBB17:
 916 02f8 CF93      		push r28
 917 02fa DF93      		push r29
 918 02fc 00D0      		rcall .
 919 02fe 00D0      		rcall .
 920 0300 CDB7      		in r28,__SP_L__
 921 0302 DEB7      		in r29,__SP_H__
 922               	/* prologue: function */
 923               	/* frame size = 4 */
 924               	/* stack size = 6 */
 925               	.L__stack_usage = 6
 926 0304 9B83      		std Y+3,r25
 927 0306 8A83      		std Y+2,r24
 928 0308 6C83      		std Y+4,r22
 929               		.stabn	68,0,348,.LM68-.LFBB17
 930               	.LM68:
 931 030a 1982      		std Y+1,__zero_reg__
 932               		.stabn	68,0,349,.LM69-.LFBB17
 933               	.LM69:
 934 030c 8A81      		ldd r24,Y+2
 935 030e 9B81      		ldd r25,Y+3
 936 0310 FC01      		movw r30,r24
 937 0312 2681      		ldd r18,Z+6
 938 0314 8A81      		ldd r24,Y+2
 939 0316 9B81      		ldd r25,Y+3
 940 0318 FC01      		movw r30,r24
 941 031a 8481      		ldd r24,Z+4
 942 031c 280F      		add r18,r24
 943 031e 8A81      		ldd r24,Y+2
 944 0320 9B81      		ldd r25,Y+3
 945 0322 FC01      		movw r30,r24
 946 0324 8781      		ldd r24,Z+7
 947 0326 2817      		cp r18,r24
 948 0328 00F4      		brsh .L29
 949               		.stabn	68,0,350,.LM70-.LFBB17
 950               	.LM70:
 951 032a 8A81      		ldd r24,Y+2
 952 032c 9B81      		ldd r25,Y+3
 953 032e FC01      		movw r30,r24
 954 0330 8481      		ldd r24,Z+4
 955 0332 21E0      		ldi r18,lo8(1)
 956 0334 280F      		add r18,r24
 957 0336 8A81      		ldd r24,Y+2
 958 0338 9B81      		ldd r25,Y+3
 959 033a FC01      		movw r30,r24
 960 033c 2483      		std Z+4,r18
 961               		.stabn	68,0,351,.LM71-.LFBB17
 962               	.LM71:
 963 033e 8A81      		ldd r24,Y+2
 964 0340 9B81      		ldd r25,Y+3
 965 0342 FC01      		movw r30,r24
 966 0344 8381      		ldd r24,Z+3
 967 0346 882F      		mov r24,r24
 968 0348 90E0      		ldi r25,0
 969 034a 2A81      		ldd r18,Y+2
GAS LISTING sboxnet2usb.s 			page 18


 970 034c 3B81      		ldd r19,Y+3
 971 034e 820F      		add r24,r18
 972 0350 931F      		adc r25,r19
 973 0352 0896      		adiw r24,8
 974 0354 2C81      		ldd r18,Y+4
 975 0356 FC01      		movw r30,r24
 976 0358 2083      		st Z,r18
 977               		.stabn	68,0,352,.LM72-.LFBB17
 978               	.LM72:
 979 035a 8A81      		ldd r24,Y+2
 980 035c 9B81      		ldd r25,Y+3
 981 035e FC01      		movw r30,r24
 982 0360 8381      		ldd r24,Z+3
 983 0362 21E0      		ldi r18,lo8(1)
 984 0364 280F      		add r18,r24
 985 0366 8A81      		ldd r24,Y+2
 986 0368 9B81      		ldd r25,Y+3
 987 036a FC01      		movw r30,r24
 988 036c 2383      		std Z+3,r18
 989               		.stabn	68,0,353,.LM73-.LFBB17
 990               	.LM73:
 991 036e 8A81      		ldd r24,Y+2
 992 0370 9B81      		ldd r25,Y+3
 993 0372 FC01      		movw r30,r24
 994 0374 2381      		ldd r18,Z+3
 995 0376 8A81      		ldd r24,Y+2
 996 0378 9B81      		ldd r25,Y+3
 997 037a FC01      		movw r30,r24
 998 037c 8781      		ldd r24,Z+7
 999 037e 2817      		cp r18,r24
 1000 0380 00F0      		brlo .L30
 1001               		.stabn	68,0,354,.LM74-.LFBB17
 1002               	.LM74:
 1003 0382 8A81      		ldd r24,Y+2
 1004 0384 9B81      		ldd r25,Y+3
 1005 0386 FC01      		movw r30,r24
 1006 0388 1382      		std Z+3,__zero_reg__
 1007               	.L30:
 1008               		.stabn	68,0,356,.LM75-.LFBB17
 1009               	.LM75:
 1010 038a 81E0      		ldi r24,lo8(1)
 1011 038c 8983      		std Y+1,r24
 1012 038e 00C0      		rjmp .L31
 1013               	.L29:
 1014               		.stabn	68,0,359,.LM76-.LFBB17
 1015               	.LM76:
 1016 0390 8091 0000 		lds r24,g_sboxnet+1
 1017 0394 8460      		ori r24,lo8(4)
 1018 0396 8093 0000 		sts g_sboxnet+1,r24
 1019               		.stabn	68,0,361,.LM77-.LFBB17
 1020               	.LM77:
 1021 039a 1982      		std Y+1,__zero_reg__
 1022               	.L31:
 1023               		.stabn	68,0,363,.LM78-.LFBB17
 1024               	.LM78:
 1025 039c 8981      		ldd r24,Y+1
 1026               	/* epilogue start */
GAS LISTING sboxnet2usb.s 			page 19


 1027               		.stabn	68,0,364,.LM79-.LFBB17
 1028               	.LM79:
 1029 039e 0F90      		pop __tmp_reg__
 1030 03a0 0F90      		pop __tmp_reg__
 1031 03a2 0F90      		pop __tmp_reg__
 1032 03a4 0F90      		pop __tmp_reg__
 1033 03a6 DF91      		pop r29
 1034 03a8 CF91      		pop r28
 1035 03aa 0895      		ret
 1036               		.size	sboxnet_rb_write, .-sboxnet_rb_write
 1037               		.stabs	"rc:(2,2)",128,0,348,1
 1038               		.stabn	192,0,0,.LFBB17-.LFBB17
 1039               		.stabn	224,0,0,.Lscope17-.LFBB17
 1040               	.Lscope17:
 1041               		.stabs	"",36,0,0,.Lscope17-.LFBB17
 1042               		.stabd	78,0,0
 1043               		.stabs	"sboxnet_rb_put_first:f(0,49)",36,0,368,sboxnet_rb_put_first
 1044               		.stabs	"rb:p(0,57)",160,0,368,1
 1045               		.stabs	"v:p(2,2)",160,0,368,3
 1046               		.type	sboxnet_rb_put_first, @function
 1047               	sboxnet_rb_put_first:
 1048               		.stabd	46,0,0
 1049               		.stabn	68,0,368,.LM80-.LFBB18
 1050               	.LM80:
 1051               	.LFBB18:
 1052 03ac CF93      		push r28
 1053 03ae DF93      		push r29
 1054 03b0 00D0      		rcall .
 1055 03b2 1F92      		push __zero_reg__
 1056 03b4 CDB7      		in r28,__SP_L__
 1057 03b6 DEB7      		in r29,__SP_H__
 1058               	/* prologue: function */
 1059               	/* frame size = 3 */
 1060               	/* stack size = 5 */
 1061               	.L__stack_usage = 5
 1062 03b8 9A83      		std Y+2,r25
 1063 03ba 8983      		std Y+1,r24
 1064 03bc 6B83      		std Y+3,r22
 1065               		.stabn	68,0,369,.LM81-.LFBB18
 1066               	.LM81:
 1067 03be 8981      		ldd r24,Y+1
 1068 03c0 9A81      		ldd r25,Y+2
 1069 03c2 FC01      		movw r30,r24
 1070 03c4 8581      		ldd r24,Z+5
 1071 03c6 882F      		mov r24,r24
 1072 03c8 90E0      		ldi r25,0
 1073 03ca 2981      		ldd r18,Y+1
 1074 03cc 3A81      		ldd r19,Y+2
 1075 03ce 820F      		add r24,r18
 1076 03d0 931F      		adc r25,r19
 1077 03d2 0896      		adiw r24,8
 1078 03d4 2B81      		ldd r18,Y+3
 1079 03d6 FC01      		movw r30,r24
 1080 03d8 2083      		st Z,r18
 1081               		.stabn	68,0,370,.LM82-.LFBB18
 1082               	.LM82:
 1083 03da 0000      		nop
GAS LISTING sboxnet2usb.s 			page 20


 1084               	/* epilogue start */
 1085 03dc 0F90      		pop __tmp_reg__
 1086 03de 0F90      		pop __tmp_reg__
 1087 03e0 0F90      		pop __tmp_reg__
 1088 03e2 DF91      		pop r29
 1089 03e4 CF91      		pop r28
 1090 03e6 0895      		ret
 1091               		.size	sboxnet_rb_put_first, .-sboxnet_rb_put_first
 1092               	.Lscope18:
 1093               		.stabs	"",36,0,0,.Lscope18-.LFBB18
 1094               		.stabd	78,0,0
 1095               		.stabs	"sboxnet_rb_write_count:f(2,2)",36,0,374,sboxnet_rb_write_count
 1096               		.stabs	"rb:p(0,57)",160,0,374,1
 1097               		.type	sboxnet_rb_write_count, @function
 1098               	sboxnet_rb_write_count:
 1099               		.stabd	46,0,0
 1100               		.stabn	68,0,374,.LM83-.LFBB19
 1101               	.LM83:
 1102               	.LFBB19:
 1103 03e8 CF93      		push r28
 1104 03ea DF93      		push r29
 1105 03ec 00D0      		rcall .
 1106 03ee CDB7      		in r28,__SP_L__
 1107 03f0 DEB7      		in r29,__SP_H__
 1108               	/* prologue: function */
 1109               	/* frame size = 2 */
 1110               	/* stack size = 4 */
 1111               	.L__stack_usage = 4
 1112 03f2 9A83      		std Y+2,r25
 1113 03f4 8983      		std Y+1,r24
 1114               		.stabn	68,0,375,.LM84-.LFBB19
 1115               	.LM84:
 1116 03f6 8981      		ldd r24,Y+1
 1117 03f8 9A81      		ldd r25,Y+2
 1118 03fa FC01      		movw r30,r24
 1119 03fc 8481      		ldd r24,Z+4
 1120               	/* epilogue start */
 1121               		.stabn	68,0,376,.LM85-.LFBB19
 1122               	.LM85:
 1123 03fe 0F90      		pop __tmp_reg__
 1124 0400 0F90      		pop __tmp_reg__
 1125 0402 DF91      		pop r29
 1126 0404 CF91      		pop r28
 1127 0406 0895      		ret
 1128               		.size	sboxnet_rb_write_count, .-sboxnet_rb_write_count
 1129               	.Lscope19:
 1130               		.stabs	"",36,0,0,.Lscope19-.LFBB19
 1131               		.stabd	78,0,0
 1132               		.stabs	"sboxnet_rb_read_commit:f(0,49)",36,0,380,sboxnet_rb_read_commit
 1133               		.stabs	"rb:p(0,57)",160,0,380,1
 1134               		.type	sboxnet_rb_read_commit, @function
 1135               	sboxnet_rb_read_commit:
 1136               		.stabd	46,0,0
 1137               		.stabn	68,0,380,.LM86-.LFBB20
 1138               	.LM86:
 1139               	.LFBB20:
 1140 0408 CF93      		push r28
GAS LISTING sboxnet2usb.s 			page 21


 1141 040a DF93      		push r29
 1142 040c 00D0      		rcall .
 1143 040e CDB7      		in r28,__SP_L__
 1144 0410 DEB7      		in r29,__SP_H__
 1145               	/* prologue: function */
 1146               	/* frame size = 2 */
 1147               	/* stack size = 4 */
 1148               	.L__stack_usage = 4
 1149 0412 9A83      		std Y+2,r25
 1150 0414 8983      		std Y+1,r24
 1151               		.stabn	68,0,382,.LM87-.LFBB20
 1152               	.LM87:
 1153 0416 8981      		ldd r24,Y+1
 1154 0418 9A81      		ldd r25,Y+2
 1155 041a FC01      		movw r30,r24
 1156 041c 2681      		ldd r18,Z+6
 1157 041e 8981      		ldd r24,Y+1
 1158 0420 9A81      		ldd r25,Y+2
 1159 0422 FC01      		movw r30,r24
 1160 0424 8181      		ldd r24,Z+1
 1161 0426 2817      		cp r18,r24
 1162 0428 00F4      		brsh .L37
 1163               		.stabn	68,0,383,.LM88-.LFBB20
 1164               	.LM88:
 1165 042a 8091 0000 		lds r24,g_sboxnet+1
 1166 042e 8260      		ori r24,lo8(2)
 1167 0430 8093 0000 		sts g_sboxnet+1,r24
 1168               	.L37:
 1169               		.stabn	68,0,386,.LM89-.LFBB20
 1170               	.LM89:
 1171 0434 8981      		ldd r24,Y+1
 1172 0436 9A81      		ldd r25,Y+2
 1173 0438 FC01      		movw r30,r24
 1174 043a 2681      		ldd r18,Z+6
 1175 043c 8981      		ldd r24,Y+1
 1176 043e 9A81      		ldd r25,Y+2
 1177 0440 FC01      		movw r30,r24
 1178 0442 8181      		ldd r24,Z+1
 1179 0444 281B      		sub r18,r24
 1180 0446 8981      		ldd r24,Y+1
 1181 0448 9A81      		ldd r25,Y+2
 1182 044a FC01      		movw r30,r24
 1183 044c 2683      		std Z+6,r18
 1184               		.stabn	68,0,387,.LM90-.LFBB20
 1185               	.LM90:
 1186 044e 8981      		ldd r24,Y+1
 1187 0450 9A81      		ldd r25,Y+2
 1188 0452 FC01      		movw r30,r24
 1189 0454 1182      		std Z+1,__zero_reg__
 1190               		.stabn	68,0,388,.LM91-.LFBB20
 1191               	.LM91:
 1192 0456 8981      		ldd r24,Y+1
 1193 0458 9A81      		ldd r25,Y+2
 1194 045a FC01      		movw r30,r24
 1195 045c 2081      		ld r18,Z
 1196 045e 8981      		ldd r24,Y+1
 1197 0460 9A81      		ldd r25,Y+2
GAS LISTING sboxnet2usb.s 			page 22


 1198 0462 FC01      		movw r30,r24
 1199 0464 2283      		std Z+2,r18
 1200               		.stabn	68,0,389,.LM92-.LFBB20
 1201               	.LM92:
 1202 0466 0000      		nop
 1203               	/* epilogue start */
 1204 0468 0F90      		pop __tmp_reg__
 1205 046a 0F90      		pop __tmp_reg__
 1206 046c DF91      		pop r29
 1207 046e CF91      		pop r28
 1208 0470 0895      		ret
 1209               		.size	sboxnet_rb_read_commit, .-sboxnet_rb_read_commit
 1210               	.Lscope20:
 1211               		.stabs	"",36,0,0,.Lscope20-.LFBB20
 1212               		.stabd	78,0,0
 1213               		.stabs	"sboxnet_rb_read_rollback:f(0,49)",36,0,393,sboxnet_rb_read_rollback
 1214               		.stabs	"rb:p(0,57)",160,0,393,1
 1215               		.type	sboxnet_rb_read_rollback, @function
 1216               	sboxnet_rb_read_rollback:
 1217               		.stabd	46,0,0
 1218               		.stabn	68,0,393,.LM93-.LFBB21
 1219               	.LM93:
 1220               	.LFBB21:
 1221 0472 CF93      		push r28
 1222 0474 DF93      		push r29
 1223 0476 00D0      		rcall .
 1224 0478 CDB7      		in r28,__SP_L__
 1225 047a DEB7      		in r29,__SP_H__
 1226               	/* prologue: function */
 1227               	/* frame size = 2 */
 1228               	/* stack size = 4 */
 1229               	.L__stack_usage = 4
 1230 047c 9A83      		std Y+2,r25
 1231 047e 8983      		std Y+1,r24
 1232               		.stabn	68,0,394,.LM94-.LFBB21
 1233               	.LM94:
 1234 0480 8981      		ldd r24,Y+1
 1235 0482 9A81      		ldd r25,Y+2
 1236 0484 FC01      		movw r30,r24
 1237 0486 1182      		std Z+1,__zero_reg__
 1238               		.stabn	68,0,395,.LM95-.LFBB21
 1239               	.LM95:
 1240 0488 8981      		ldd r24,Y+1
 1241 048a 9A81      		ldd r25,Y+2
 1242 048c FC01      		movw r30,r24
 1243 048e 2281      		ldd r18,Z+2
 1244 0490 8981      		ldd r24,Y+1
 1245 0492 9A81      		ldd r25,Y+2
 1246 0494 FC01      		movw r30,r24
 1247 0496 2083      		st Z,r18
 1248               		.stabn	68,0,396,.LM96-.LFBB21
 1249               	.LM96:
 1250 0498 0000      		nop
 1251               	/* epilogue start */
 1252 049a 0F90      		pop __tmp_reg__
 1253 049c 0F90      		pop __tmp_reg__
 1254 049e DF91      		pop r29
GAS LISTING sboxnet2usb.s 			page 23


 1255 04a0 CF91      		pop r28
 1256 04a2 0895      		ret
 1257               		.size	sboxnet_rb_read_rollback, .-sboxnet_rb_read_rollback
 1258               	.Lscope21:
 1259               		.stabs	"",36,0,0,.Lscope21-.LFBB21
 1260               		.stabd	78,0,0
 1261               		.stabs	"sboxnet_rb_read:f(2,2)",36,0,400,sboxnet_rb_read
 1262               		.stabs	"rb:p(0,57)",160,0,400,2
 1263               		.type	sboxnet_rb_read, @function
 1264               	sboxnet_rb_read:
 1265               		.stabd	46,0,0
 1266               		.stabn	68,0,400,.LM97-.LFBB22
 1267               	.LM97:
 1268               	.LFBB22:
 1269 04a4 CF93      		push r28
 1270 04a6 DF93      		push r29
 1271 04a8 00D0      		rcall .
 1272 04aa 1F92      		push __zero_reg__
 1273 04ac CDB7      		in r28,__SP_L__
 1274 04ae DEB7      		in r29,__SP_H__
 1275               	/* prologue: function */
 1276               	/* frame size = 3 */
 1277               	/* stack size = 5 */
 1278               	.L__stack_usage = 5
 1279 04b0 9B83      		std Y+3,r25
 1280 04b2 8A83      		std Y+2,r24
 1281               		.stabn	68,0,401,.LM98-.LFBB22
 1282               	.LM98:
 1283 04b4 1982      		std Y+1,__zero_reg__
 1284               		.stabn	68,0,402,.LM99-.LFBB22
 1285               	.LM99:
 1286 04b6 8A81      		ldd r24,Y+2
 1287 04b8 9B81      		ldd r25,Y+3
 1288 04ba FC01      		movw r30,r24
 1289 04bc 2681      		ldd r18,Z+6
 1290 04be 8A81      		ldd r24,Y+2
 1291 04c0 9B81      		ldd r25,Y+3
 1292 04c2 FC01      		movw r30,r24
 1293 04c4 8181      		ldd r24,Z+1
 1294 04c6 8217      		cp r24,r18
 1295 04c8 00F4      		brsh .L40
 1296               		.stabn	68,0,403,.LM100-.LFBB22
 1297               	.LM100:
 1298 04ca 8A81      		ldd r24,Y+2
 1299 04cc 9B81      		ldd r25,Y+3
 1300 04ce FC01      		movw r30,r24
 1301 04d0 8181      		ldd r24,Z+1
 1302 04d2 21E0      		ldi r18,lo8(1)
 1303 04d4 280F      		add r18,r24
 1304 04d6 8A81      		ldd r24,Y+2
 1305 04d8 9B81      		ldd r25,Y+3
 1306 04da FC01      		movw r30,r24
 1307 04dc 2183      		std Z+1,r18
 1308               		.stabn	68,0,404,.LM101-.LFBB22
 1309               	.LM101:
 1310 04de 8A81      		ldd r24,Y+2
 1311 04e0 9B81      		ldd r25,Y+3
GAS LISTING sboxnet2usb.s 			page 24


 1312 04e2 FC01      		movw r30,r24
 1313 04e4 8081      		ld r24,Z
 1314 04e6 882F      		mov r24,r24
 1315 04e8 90E0      		ldi r25,0
 1316 04ea 2A81      		ldd r18,Y+2
 1317 04ec 3B81      		ldd r19,Y+3
 1318 04ee 820F      		add r24,r18
 1319 04f0 931F      		adc r25,r19
 1320 04f2 0896      		adiw r24,8
 1321 04f4 FC01      		movw r30,r24
 1322 04f6 8081      		ld r24,Z
 1323 04f8 8983      		std Y+1,r24
 1324               		.stabn	68,0,405,.LM102-.LFBB22
 1325               	.LM102:
 1326 04fa 8A81      		ldd r24,Y+2
 1327 04fc 9B81      		ldd r25,Y+3
 1328 04fe FC01      		movw r30,r24
 1329 0500 8081      		ld r24,Z
 1330 0502 21E0      		ldi r18,lo8(1)
 1331 0504 280F      		add r18,r24
 1332 0506 8A81      		ldd r24,Y+2
 1333 0508 9B81      		ldd r25,Y+3
 1334 050a FC01      		movw r30,r24
 1335 050c 2083      		st Z,r18
 1336               		.stabn	68,0,406,.LM103-.LFBB22
 1337               	.LM103:
 1338 050e 8A81      		ldd r24,Y+2
 1339 0510 9B81      		ldd r25,Y+3
 1340 0512 FC01      		movw r30,r24
 1341 0514 2081      		ld r18,Z
 1342 0516 8A81      		ldd r24,Y+2
 1343 0518 9B81      		ldd r25,Y+3
 1344 051a FC01      		movw r30,r24
 1345 051c 8781      		ldd r24,Z+7
 1346 051e 2817      		cp r18,r24
 1347 0520 00F0      		brlo .L42
 1348               		.stabn	68,0,407,.LM104-.LFBB22
 1349               	.LM104:
 1350 0522 8A81      		ldd r24,Y+2
 1351 0524 9B81      		ldd r25,Y+3
 1352 0526 FC01      		movw r30,r24
 1353 0528 1082      		st Z,__zero_reg__
 1354 052a 00C0      		rjmp .L42
 1355               	.L40:
 1356               		.stabn	68,0,411,.LM105-.LFBB22
 1357               	.LM105:
 1358 052c 8091 0000 		lds r24,g_sboxnet+1
 1359 0530 8260      		ori r24,lo8(2)
 1360 0532 8093 0000 		sts g_sboxnet+1,r24
 1361               	.L42:
 1362               		.stabn	68,0,414,.LM106-.LFBB22
 1363               	.LM106:
 1364 0536 8981      		ldd r24,Y+1
 1365               	/* epilogue start */
 1366               		.stabn	68,0,415,.LM107-.LFBB22
 1367               	.LM107:
 1368 0538 0F90      		pop __tmp_reg__
GAS LISTING sboxnet2usb.s 			page 25


 1369 053a 0F90      		pop __tmp_reg__
 1370 053c 0F90      		pop __tmp_reg__
 1371 053e DF91      		pop r29
 1372 0540 CF91      		pop r28
 1373 0542 0895      		ret
 1374               		.size	sboxnet_rb_read, .-sboxnet_rb_read
 1375               		.stabs	"v:(2,2)",128,0,401,1
 1376               		.stabn	192,0,0,.LFBB22-.LFBB22
 1377               		.stabn	224,0,0,.Lscope22-.LFBB22
 1378               	.Lscope22:
 1379               		.stabs	"",36,0,0,.Lscope22-.LFBB22
 1380               		.stabd	78,0,0
 1381               		.stabs	"sboxnet_rb_read_getone:f(2,2)",36,0,419,sboxnet_rb_read_getone
 1382               		.stabs	"rb:p(0,57)",160,0,419,2
 1383               		.type	sboxnet_rb_read_getone, @function
 1384               	sboxnet_rb_read_getone:
 1385               		.stabd	46,0,0
 1386               		.stabn	68,0,419,.LM108-.LFBB23
 1387               	.LM108:
 1388               	.LFBB23:
 1389 0544 CF93      		push r28
 1390 0546 DF93      		push r29
 1391 0548 00D0      		rcall .
 1392 054a 1F92      		push __zero_reg__
 1393 054c CDB7      		in r28,__SP_L__
 1394 054e DEB7      		in r29,__SP_H__
 1395               	/* prologue: function */
 1396               	/* frame size = 3 */
 1397               	/* stack size = 5 */
 1398               	.L__stack_usage = 5
 1399 0550 9B83      		std Y+3,r25
 1400 0552 8A83      		std Y+2,r24
 1401               		.stabn	68,0,420,.LM109-.LFBB23
 1402               	.LM109:
 1403 0554 1982      		std Y+1,__zero_reg__
 1404               		.stabn	68,0,421,.LM110-.LFBB23
 1405               	.LM110:
 1406 0556 8A81      		ldd r24,Y+2
 1407 0558 9B81      		ldd r25,Y+3
 1408 055a FC01      		movw r30,r24
 1409 055c 2681      		ldd r18,Z+6
 1410 055e 8A81      		ldd r24,Y+2
 1411 0560 9B81      		ldd r25,Y+3
 1412 0562 FC01      		movw r30,r24
 1413 0564 8181      		ldd r24,Z+1
 1414 0566 8217      		cp r24,r18
 1415 0568 00F4      		brsh .L45
 1416               		.stabn	68,0,422,.LM111-.LFBB23
 1417               	.LM111:
 1418 056a 8A81      		ldd r24,Y+2
 1419 056c 9B81      		ldd r25,Y+3
 1420 056e FC01      		movw r30,r24
 1421 0570 8081      		ld r24,Z
 1422 0572 882F      		mov r24,r24
 1423 0574 90E0      		ldi r25,0
 1424 0576 2A81      		ldd r18,Y+2
 1425 0578 3B81      		ldd r19,Y+3
GAS LISTING sboxnet2usb.s 			page 26


 1426 057a 820F      		add r24,r18
 1427 057c 931F      		adc r25,r19
 1428 057e 0896      		adiw r24,8
 1429 0580 FC01      		movw r30,r24
 1430 0582 8081      		ld r24,Z
 1431 0584 8983      		std Y+1,r24
 1432 0586 00C0      		rjmp .L46
 1433               	.L45:
 1434               		.stabn	68,0,425,.LM112-.LFBB23
 1435               	.LM112:
 1436 0588 8091 0000 		lds r24,g_sboxnet+1
 1437 058c 8260      		ori r24,lo8(2)
 1438 058e 8093 0000 		sts g_sboxnet+1,r24
 1439               	.L46:
 1440               		.stabn	68,0,428,.LM113-.LFBB23
 1441               	.LM113:
 1442 0592 8981      		ldd r24,Y+1
 1443               	/* epilogue start */
 1444               		.stabn	68,0,429,.LM114-.LFBB23
 1445               	.LM114:
 1446 0594 0F90      		pop __tmp_reg__
 1447 0596 0F90      		pop __tmp_reg__
 1448 0598 0F90      		pop __tmp_reg__
 1449 059a DF91      		pop r29
 1450 059c CF91      		pop r28
 1451 059e 0895      		ret
 1452               		.size	sboxnet_rb_read_getone, .-sboxnet_rb_read_getone
 1453               		.stabs	"v:(2,2)",128,0,420,1
 1454               		.stabn	192,0,0,.LFBB23-.LFBB23
 1455               		.stabn	224,0,0,.Lscope23-.LFBB23
 1456               	.Lscope23:
 1457               		.stabs	"",36,0,0,.Lscope23-.LFBB23
 1458               		.stabd	78,0,0
 1459               		.stabs	"sboxnet_rb_can_read_bytes:f(2,2)",36,0,433,sboxnet_rb_can_read_bytes
 1460               		.stabs	"rb:p(0,57)",160,0,433,1
 1461               		.type	sboxnet_rb_can_read_bytes, @function
 1462               	sboxnet_rb_can_read_bytes:
 1463               		.stabd	46,0,0
 1464               		.stabn	68,0,433,.LM115-.LFBB24
 1465               	.LM115:
 1466               	.LFBB24:
 1467 05a0 CF93      		push r28
 1468 05a2 DF93      		push r29
 1469 05a4 00D0      		rcall .
 1470 05a6 CDB7      		in r28,__SP_L__
 1471 05a8 DEB7      		in r29,__SP_H__
 1472               	/* prologue: function */
 1473               	/* frame size = 2 */
 1474               	/* stack size = 4 */
 1475               	.L__stack_usage = 4
 1476 05aa 9A83      		std Y+2,r25
 1477 05ac 8983      		std Y+1,r24
 1478               		.stabn	68,0,434,.LM116-.LFBB24
 1479               	.LM116:
 1480 05ae 8981      		ldd r24,Y+1
 1481 05b0 9A81      		ldd r25,Y+2
 1482 05b2 FC01      		movw r30,r24
GAS LISTING sboxnet2usb.s 			page 27


 1483 05b4 2681      		ldd r18,Z+6
 1484 05b6 8981      		ldd r24,Y+1
 1485 05b8 9A81      		ldd r25,Y+2
 1486 05ba FC01      		movw r30,r24
 1487 05bc 8181      		ldd r24,Z+1
 1488 05be F22F      		mov r31,r18
 1489 05c0 F81B      		sub r31,r24
 1490 05c2 8F2F      		mov r24,r31
 1491               	/* epilogue start */
 1492               		.stabn	68,0,435,.LM117-.LFBB24
 1493               	.LM117:
 1494 05c4 0F90      		pop __tmp_reg__
 1495 05c6 0F90      		pop __tmp_reg__
 1496 05c8 DF91      		pop r29
 1497 05ca CF91      		pop r28
 1498 05cc 0895      		ret
 1499               		.size	sboxnet_rb_can_read_bytes, .-sboxnet_rb_can_read_bytes
 1500               	.Lscope24:
 1501               		.stabs	"",36,0,0,.Lscope24-.LFBB24
 1502               		.stabd	78,0,0
 1503               		.stabs	"sboxnet_receiver_enable:f(0,49)",36,0,442,sboxnet_receiver_enable
 1504               		.type	sboxnet_receiver_enable, @function
 1505               	sboxnet_receiver_enable:
 1506               		.stabd	46,0,0
 1507               		.stabn	68,0,442,.LM118-.LFBB25
 1508               	.LM118:
 1509               	.LFBB25:
 1510 05ce CF93      		push r28
 1511 05d0 DF93      		push r29
 1512 05d2 CDB7      		in r28,__SP_L__
 1513 05d4 DEB7      		in r29,__SP_H__
 1514               	/* prologue: function */
 1515               	/* frame size = 0 */
 1516               	/* stack size = 2 */
 1517               	.L__stack_usage = 2
 1518               		.stabn	68,0,447,.LM119-.LFBB25
 1519               	.LM119:
 1520 05d6 88EC      		ldi r24,lo8(-56)
 1521 05d8 90E0      		ldi r25,0
 1522 05da 28EC      		ldi r18,lo8(-56)
 1523 05dc 30E0      		ldi r19,0
 1524 05de F901      		movw r30,r18
 1525 05e0 2081      		ld r18,Z
 1526 05e2 2160      		ori r18,lo8(1)
 1527 05e4 FC01      		movw r30,r24
 1528 05e6 2083      		st Z,r18
 1529               		.stabn	68,0,448,.LM120-.LFBB25
 1530               	.LM120:
 1531 05e8 89EC      		ldi r24,lo8(-55)
 1532 05ea 90E0      		ldi r25,0
 1533 05ec 29EC      		ldi r18,lo8(-55)
 1534 05ee 30E0      		ldi r19,0
 1535 05f0 F901      		movw r30,r18
 1536 05f2 2081      		ld r18,Z
 1537 05f4 2069      		ori r18,lo8(-112)
 1538 05f6 FC01      		movw r30,r24
 1539 05f8 2083      		st Z,r18
GAS LISTING sboxnet2usb.s 			page 28


 1540               		.stabn	68,0,450,.LM121-.LFBB25
 1541               	.LM121:
 1542 05fa 0000      		nop
 1543               	/* epilogue start */
 1544 05fc DF91      		pop r29
 1545 05fe CF91      		pop r28
 1546 0600 0895      		ret
 1547               		.size	sboxnet_receiver_enable, .-sboxnet_receiver_enable
 1548               	.Lscope25:
 1549               		.stabs	"",36,0,0,.Lscope25-.LFBB25
 1550               		.stabd	78,0,0
 1551               		.stabs	"sboxnet_init:f(0,49)",36,0,462,sboxnet_init
 1552               		.type	sboxnet_init, @function
 1553               	sboxnet_init:
 1554               		.stabd	46,0,0
 1555               		.stabn	68,0,462,.LM122-.LFBB26
 1556               	.LM122:
 1557               	.LFBB26:
 1558 0602 CF93      		push r28
 1559 0604 DF93      		push r29
 1560 0606 00D0      		rcall .
 1561 0608 CDB7      		in r28,__SP_L__
 1562 060a DEB7      		in r29,__SP_H__
 1563               	/* prologue: function */
 1564               	/* frame size = 2 */
 1565               	/* stack size = 4 */
 1566               	.L__stack_usage = 4
 1567               		.stabn	68,0,463,.LM123-.LFBB26
 1568               	.LM123:
 1569 060c 80E0      		ldi r24,lo8(g_sboxnet)
 1570 060e 90E0      		ldi r25,hi8(g_sboxnet)
 1571 0610 9A83      		std Y+2,r25
 1572 0612 8983      		std Y+1,r24
 1573               		.stabn	68,0,464,.LM124-.LFBB26
 1574               	.LM124:
 1575 0614 8981      		ldd r24,Y+1
 1576 0616 9A81      		ldd r25,Y+2
 1577 0618 43E3      		ldi r20,lo8(51)
 1578 061a 52E0      		ldi r21,lo8(2)
 1579 061c 60E0      		ldi r22,0
 1580 061e 70E0      		ldi r23,0
 1581 0620 0E94 0000 		call memset
 1582               		.stabn	68,0,465,.LM125-.LFBB26
 1583               	.LM125:
 1584 0624 8981      		ldd r24,Y+1
 1585 0626 9A81      		ldd r25,Y+2
 1586 0628 FC01      		movw r30,r24
 1587 062a 1082      		st Z,__zero_reg__
 1588               		.stabn	68,0,466,.LM126-.LFBB26
 1589               	.LM126:
 1590 062c 86E6      		ldi r24,lo8(102)
 1591 062e 90E0      		ldi r25,0
 1592 0630 FC01      		movw r30,r24
 1593 0632 2081      		ld r18,Z
 1594               		.stabn	68,0,466,.LM127-.LFBB26
 1595               	.LM127:
 1596 0634 8981      		ldd r24,Y+1
GAS LISTING sboxnet2usb.s 			page 29


 1597 0636 9A81      		ldd r25,Y+2
 1598 0638 FC01      		movw r30,r24
 1599 063a 2087      		std Z+8,r18
 1600               		.stabn	68,0,467,.LM128-.LFBB26
 1601               	.LM128:
 1602 063c 8981      		ldd r24,Y+1
 1603 063e 9A81      		ldd r25,Y+2
 1604 0640 29E1      		ldi r18,lo8(25)
 1605 0642 FC01      		movw r30,r24
 1606 0644 2283      		std Z+2,r18
 1607               		.stabn	68,0,469,.LM129-.LFBB26
 1608               	.LM129:
 1609 0646 8981      		ldd r24,Y+1
 1610 0648 9A81      		ldd r25,Y+2
 1611 064a 0996      		adiw r24,9
 1612 064c 6AEF      		ldi r22,lo8(-6)
 1613 064e 0E94 0000 		call sboxnet_rb_init
 1614               		.stabn	68,0,470,.LM130-.LFBB26
 1615               	.LM130:
 1616 0652 8981      		ldd r24,Y+1
 1617 0654 9A81      		ldd r25,Y+2
 1618 0656 855F      		subi r24,-11
 1619 0658 9E4F      		sbci r25,-2
 1620 065a 6AEF      		ldi r22,lo8(-6)
 1621 065c 0E94 0000 		call sboxnet_rb_init
 1622               		.stabn	68,0,472,.LM131-.LFBB26
 1623               	.LM131:
 1624 0660 8AE2      		ldi r24,lo8(42)
 1625 0662 90E0      		ldi r25,0
 1626 0664 2AE2      		ldi r18,lo8(42)
 1627 0666 30E0      		ldi r19,0
 1628 0668 F901      		movw r30,r18
 1629 066a 2081      		ld r18,Z
 1630 066c 2B7F      		andi r18,lo8(-5)
 1631 066e FC01      		movw r30,r24
 1632 0670 2083      		st Z,r18
 1633               		.stabn	68,0,473,.LM132-.LFBB26
 1634               	.LM132:
 1635 0672 8BE2      		ldi r24,lo8(43)
 1636 0674 90E0      		ldi r25,0
 1637 0676 2BE2      		ldi r18,lo8(43)
 1638 0678 30E0      		ldi r19,0
 1639 067a F901      		movw r30,r18
 1640 067c 2081      		ld r18,Z
 1641 067e 2460      		ori r18,lo8(4)
 1642 0680 FC01      		movw r30,r24
 1643 0682 2083      		st Z,r18
 1644               		.stabn	68,0,475,.LM133-.LFBB26
 1645               	.LM133:
 1646 0684 8BE2      		ldi r24,lo8(43)
 1647 0686 90E0      		ldi r25,0
 1648 0688 2BE2      		ldi r18,lo8(43)
 1649 068a 30E0      		ldi r19,0
 1650 068c F901      		movw r30,r18
 1651 068e 2081      		ld r18,Z
 1652 0690 2860      		ori r18,lo8(8)
 1653 0692 FC01      		movw r30,r24
GAS LISTING sboxnet2usb.s 			page 30


 1654 0694 2083      		st Z,r18
 1655               		.stabn	68,0,476,.LM134-.LFBB26
 1656               	.LM134:
 1657 0696 8AE2      		ldi r24,lo8(42)
 1658 0698 90E0      		ldi r25,0
 1659 069a 2AE2      		ldi r18,lo8(42)
 1660 069c 30E0      		ldi r19,0
 1661 069e F901      		movw r30,r18
 1662 06a0 2081      		ld r18,Z
 1663 06a2 2860      		ori r18,lo8(8)
 1664 06a4 FC01      		movw r30,r24
 1665 06a6 2083      		st Z,r18
 1666               		.stabn	68,0,499,.LM135-.LFBB26
 1667               	.LM135:
 1668 06a8 8DE3      		ldi r24,lo8(61)
 1669 06aa 90E0      		ldi r25,0
 1670 06ac 2DE3      		ldi r18,lo8(61)
 1671 06ae 30E0      		ldi r19,0
 1672 06b0 F901      		movw r30,r18
 1673 06b2 2081      		ld r18,Z
 1674 06b4 2B7F      		andi r18,lo8(-5)
 1675 06b6 FC01      		movw r30,r24
 1676 06b8 2083      		st Z,r18
 1677               		.stabn	68,0,500,.LM136-.LFBB26
 1678               	.LM136:
 1679 06ba 89E6      		ldi r24,lo8(105)
 1680 06bc 90E0      		ldi r25,0
 1681 06be 29E6      		ldi r18,lo8(105)
 1682 06c0 30E0      		ldi r19,0
 1683 06c2 F901      		movw r30,r18
 1684 06c4 2081      		ld r18,Z
 1685 06c6 2F7D      		andi r18,lo8(-33)
 1686 06c8 FC01      		movw r30,r24
 1687 06ca 2083      		st Z,r18
 1688               		.stabn	68,0,501,.LM137-.LFBB26
 1689               	.LM137:
 1690 06cc 89E6      		ldi r24,lo8(105)
 1691 06ce 90E0      		ldi r25,0
 1692 06d0 29E6      		ldi r18,lo8(105)
 1693 06d2 30E0      		ldi r19,0
 1694 06d4 F901      		movw r30,r18
 1695 06d6 2081      		ld r18,Z
 1696 06d8 2061      		ori r18,lo8(16)
 1697 06da FC01      		movw r30,r24
 1698 06dc 2083      		st Z,r18
 1699               		.stabn	68,0,502,.LM138-.LFBB26
 1700               	.LM138:
 1701 06de 8CE3      		ldi r24,lo8(60)
 1702 06e0 90E0      		ldi r25,0
 1703               		.stabn	68,0,502,.LM139-.LFBB26
 1704               	.LM139:
 1705 06e2 24E0      		ldi r18,lo8(4)
 1706 06e4 FC01      		movw r30,r24
 1707 06e6 2083      		st Z,r18
 1708               		.stabn	68,0,504,.LM140-.LFBB26
 1709               	.LM140:
 1710 06e8 8DEC      		ldi r24,lo8(-51)
GAS LISTING sboxnet2usb.s 			page 31


 1711 06ea 90E0      		ldi r25,0
 1712               		.stabn	68,0,504,.LM141-.LFBB26
 1713               	.LM141:
 1714 06ec FC01      		movw r30,r24
 1715 06ee 1082      		st Z,__zero_reg__
 1716               		.stabn	68,0,505,.LM142-.LFBB26
 1717               	.LM142:
 1718 06f0 8CEC      		ldi r24,lo8(-52)
 1719 06f2 90E0      		ldi r25,0
 1720               		.stabn	68,0,505,.LM143-.LFBB26
 1721               	.LM143:
 1722 06f4 23E0      		ldi r18,lo8(3)
 1723 06f6 FC01      		movw r30,r24
 1724 06f8 2083      		st Z,r18
 1725               		.stabn	68,0,506,.LM144-.LFBB26
 1726               	.LM144:
 1727 06fa 88EC      		ldi r24,lo8(-56)
 1728 06fc 90E0      		ldi r25,0
 1729               		.stabn	68,0,506,.LM145-.LFBB26
 1730               	.LM145:
 1731 06fe 20E4      		ldi r18,lo8(64)
 1732 0700 FC01      		movw r30,r24
 1733 0702 2083      		st Z,r18
 1734               		.stabn	68,0,507,.LM146-.LFBB26
 1735               	.LM146:
 1736 0704 8AEC      		ldi r24,lo8(-54)
 1737 0706 90E0      		ldi r25,0
 1738               		.stabn	68,0,507,.LM147-.LFBB26
 1739               	.LM147:
 1740 0708 26E2      		ldi r18,lo8(38)
 1741 070a FC01      		movw r30,r24
 1742 070c 2083      		st Z,r18
 1743               		.stabn	68,0,513,.LM148-.LFBB26
 1744               	.LM148:
 1745 070e 89EC      		ldi r24,lo8(-55)
 1746 0710 90E0      		ldi r25,0
 1747               		.stabn	68,0,513,.LM149-.LFBB26
 1748               	.LM149:
 1749 0712 24E0      		ldi r18,lo8(4)
 1750 0714 FC01      		movw r30,r24
 1751 0716 2083      		st Z,r18
 1752               		.stabn	68,0,516,.LM150-.LFBB26
 1753               	.LM150:
 1754 0718 0E94 0000 		call sboxnet_receiver_enable
 1755               		.stabn	68,0,517,.LM151-.LFBB26
 1756               	.LM151:
 1757 071c 0000      		nop
 1758               	/* epilogue start */
 1759 071e 0F90      		pop __tmp_reg__
 1760 0720 0F90      		pop __tmp_reg__
 1761 0722 DF91      		pop r29
 1762 0724 CF91      		pop r28
 1763 0726 0895      		ret
 1764               		.size	sboxnet_init, .-sboxnet_init
 1765               		.stabs	"dev:(0,58)=*(12,6)",128,0,463,1
 1766               		.stabn	192,0,0,.LFBB26-.LFBB26
 1767               		.stabn	224,0,0,.Lscope26-.LFBB26
GAS LISTING sboxnet2usb.s 			page 32


 1768               	.Lscope26:
 1769               		.stabs	"",36,0,0,.Lscope26-.LFBB26
 1770               		.stabd	78,0,0
 1771               		.stabs	"sboxnet_deinit:f(0,49)",36,0,522,sboxnet_deinit
 1772               		.type	sboxnet_deinit, @function
 1773               	sboxnet_deinit:
 1774               		.stabd	46,0,0
 1775               		.stabn	68,0,522,.LM152-.LFBB27
 1776               	.LM152:
 1777               	.LFBB27:
 1778 0728 CF93      		push r28
 1779 072a DF93      		push r29
 1780 072c 00D0      		rcall .
 1781 072e CDB7      		in r28,__SP_L__
 1782 0730 DEB7      		in r29,__SP_H__
 1783               	/* prologue: function */
 1784               	/* frame size = 2 */
 1785               	/* stack size = 4 */
 1786               	.L__stack_usage = 4
 1787               	.LBB6:
 1788               		.stabn	68,0,523,.LM153-.LFBB27
 1789               	.LM153:
 1790 0732 8FE5      		ldi r24,lo8(95)
 1791 0734 90E0      		ldi r25,0
 1792 0736 FC01      		movw r30,r24
 1793 0738 8081      		ld r24,Z
 1794 073a 8A83      		std Y+2,r24
 1795 073c 0E94 0000 		call __iCliRetVal
 1796 0740 8983      		std Y+1,r24
 1797 0742 00C0      		rjmp .L53
 1798               	.L54:
 1799               		.stabn	68,0,524,.LM154-.LFBB27
 1800               	.LM154:
 1801 0744 1092 0000 		sts g_sboxnet,__zero_reg__
 1802               		.stabn	68,0,529,.LM155-.LFBB27
 1803               	.LM155:
 1804 0748 89EC      		ldi r24,lo8(-55)
 1805 074a 90E0      		ldi r25,0
 1806               		.stabn	68,0,529,.LM156-.LFBB27
 1807               	.LM156:
 1808 074c 24E0      		ldi r18,lo8(4)
 1809 074e FC01      		movw r30,r24
 1810 0750 2083      		st Z,r18
 1811               		.stabn	68,0,532,.LM157-.LFBB27
 1812               	.LM157:
 1813 0752 8AE2      		ldi r24,lo8(42)
 1814 0754 90E0      		ldi r25,0
 1815 0756 2AE2      		ldi r18,lo8(42)
 1816 0758 30E0      		ldi r19,0
 1817 075a F901      		movw r30,r18
 1818 075c 2081      		ld r18,Z
 1819 075e 2B7F      		andi r18,lo8(-5)
 1820 0760 FC01      		movw r30,r24
 1821 0762 2083      		st Z,r18
 1822               		.stabn	68,0,533,.LM158-.LFBB27
 1823               	.LM158:
 1824 0764 8AE2      		ldi r24,lo8(42)
GAS LISTING sboxnet2usb.s 			page 33


 1825 0766 90E0      		ldi r25,0
 1826 0768 2AE2      		ldi r18,lo8(42)
 1827 076a 30E0      		ldi r19,0
 1828 076c F901      		movw r30,r18
 1829 076e 2081      		ld r18,Z
 1830 0770 277F      		andi r18,lo8(-9)
 1831 0772 FC01      		movw r30,r24
 1832 0774 2083      		st Z,r18
 1833               		.stabn	68,0,534,.LM159-.LFBB27
 1834               	.LM159:
 1835 0776 8BE2      		ldi r24,lo8(43)
 1836 0778 90E0      		ldi r25,0
 1837 077a 2BE2      		ldi r18,lo8(43)
 1838 077c 30E0      		ldi r19,0
 1839 077e F901      		movw r30,r18
 1840 0780 2081      		ld r18,Z
 1841 0782 2860      		ori r18,lo8(8)
 1842 0784 FC01      		movw r30,r24
 1843 0786 2083      		st Z,r18
 1844               		.stabn	68,0,542,.LM160-.LFBB27
 1845               	.LM160:
 1846 0788 8DE3      		ldi r24,lo8(61)
 1847 078a 90E0      		ldi r25,0
 1848 078c 2DE3      		ldi r18,lo8(61)
 1849 078e 30E0      		ldi r19,0
 1850 0790 F901      		movw r30,r18
 1851 0792 2081      		ld r18,Z
 1852 0794 2B7F      		andi r18,lo8(-5)
 1853 0796 FC01      		movw r30,r24
 1854 0798 2083      		st Z,r18
 1855               		.stabn	68,0,523,.LM161-.LFBB27
 1856               	.LM161:
 1857 079a 1982      		std Y+1,__zero_reg__
 1858               	.L53:
 1859               		.stabn	68,0,523,.LM162-.LFBB27
 1860               	.LM162:
 1861 079c 8981      		ldd r24,Y+1
 1862 079e 8823      		tst r24
 1863 07a0 01F4      		brne .L54
 1864               		.stabn	68,0,523,.LM163-.LFBB27
 1865               	.LM163:
 1866 07a2 CE01      		movw r24,r28
 1867 07a4 0296      		adiw r24,2
 1868 07a6 0E94 0000 		call __iRestore
 1869               	.LBE6:
 1870               		.stabn	68,0,546,.LM164-.LFBB27
 1871               	.LM164:
 1872 07aa 0000      		nop
 1873               	/* epilogue start */
 1874 07ac 0F90      		pop __tmp_reg__
 1875 07ae 0F90      		pop __tmp_reg__
 1876 07b0 DF91      		pop r29
 1877 07b2 CF91      		pop r28
 1878 07b4 0895      		ret
 1879               		.size	sboxnet_deinit, .-sboxnet_deinit
 1880               		.stabs	"sreg_save:(2,2)",128,0,523,2
 1881               		.stabs	"__ToDo:(2,2)",128,0,523,1
GAS LISTING sboxnet2usb.s 			page 34


 1882               		.stabn	192,0,0,.LBB6-.LFBB27
 1883               		.stabn	224,0,0,.LBE6-.LFBB27
 1884               	.Lscope27:
 1885               		.stabs	"",36,0,0,.Lscope27-.LFBB27
 1886               		.stabd	78,0,0
 1887               		.stabs	"sboxnet_set_timer:f(0,49)",36,0,554,sboxnet_set_timer
 1888               		.stabs	"offset:p(2,4)",160,0,554,1
 1889               		.type	sboxnet_set_timer, @function
 1890               	sboxnet_set_timer:
 1891               		.stabd	46,0,0
 1892               		.stabn	68,0,554,.LM165-.LFBB28
 1893               	.LM165:
 1894               	.LFBB28:
 1895 07b6 0F93      		push r16
 1896 07b8 1F93      		push r17
 1897 07ba CF93      		push r28
 1898 07bc DF93      		push r29
 1899 07be 00D0      		rcall .
 1900 07c0 CDB7      		in r28,__SP_L__
 1901 07c2 DEB7      		in r29,__SP_H__
 1902               	/* prologue: function */
 1903               	/* frame size = 2 */
 1904               	/* stack size = 6 */
 1905               	.L__stack_usage = 6
 1906 07c4 9A83      		std Y+2,r25
 1907 07c6 8983      		std Y+1,r24
 1908               		.stabn	68,0,567,.LM166-.LFBB28
 1909               	.LM166:
 1910 07c8 84E8      		ldi r24,lo8(-124)
 1911 07ca 90E0      		ldi r25,0
 1912               		.stabn	68,0,567,.LM167-.LFBB28
 1913               	.LM167:
 1914 07cc FC01      		movw r30,r24
 1915 07ce 0081      		ld r16,Z
 1916 07d0 1181      		ldd r17,Z+1
 1917               		.stabn	68,0,568,.LM168-.LFBB28
 1918               	.LM168:
 1919 07d2 8AE8      		ldi r24,lo8(-118)
 1920 07d4 90E0      		ldi r25,0
 1921               		.stabn	68,0,568,.LM169-.LFBB28
 1922               	.LM169:
 1923 07d6 2981      		ldd r18,Y+1
 1924 07d8 3A81      		ldd r19,Y+2
 1925 07da 200F      		add r18,r16
 1926 07dc 311F      		adc r19,r17
 1927 07de FC01      		movw r30,r24
 1928 07e0 3183      		std Z+1,r19
 1929 07e2 2083      		st Z,r18
 1930               		.stabn	68,0,569,.LM170-.LFBB28
 1931               	.LM170:
 1932 07e4 86E3      		ldi r24,lo8(54)
 1933 07e6 90E0      		ldi r25,0
 1934               		.stabn	68,0,569,.LM171-.LFBB28
 1935               	.LM171:
 1936 07e8 24E0      		ldi r18,lo8(4)
 1937 07ea FC01      		movw r30,r24
 1938 07ec 2083      		st Z,r18
GAS LISTING sboxnet2usb.s 			page 35


 1939               		.stabn	68,0,570,.LM172-.LFBB28
 1940               	.LM172:
 1941 07ee 8FE6      		ldi r24,lo8(111)
 1942 07f0 90E0      		ldi r25,0
 1943 07f2 2FE6      		ldi r18,lo8(111)
 1944 07f4 30E0      		ldi r19,0
 1945 07f6 F901      		movw r30,r18
 1946 07f8 2081      		ld r18,Z
 1947 07fa 2460      		ori r18,lo8(4)
 1948 07fc FC01      		movw r30,r24
 1949 07fe 2083      		st Z,r18
 1950               		.stabn	68,0,572,.LM173-.LFBB28
 1951               	.LM173:
 1952 0800 0000      		nop
 1953               	/* epilogue start */
 1954 0802 0F90      		pop __tmp_reg__
 1955 0804 0F90      		pop __tmp_reg__
 1956 0806 DF91      		pop r29
 1957 0808 CF91      		pop r28
 1958 080a 1F91      		pop r17
 1959 080c 0F91      		pop r16
 1960 080e 0895      		ret
 1961               		.size	sboxnet_set_timer, .-sboxnet_set_timer
 1962               		.stabs	"ocr:r(2,4)",64,0,567,16
 1963               		.stabn	192,0,0,.LFBB28-.LFBB28
 1964               		.stabn	224,0,0,.Lscope28-.LFBB28
 1965               	.Lscope28:
 1966               		.stabs	"",36,0,0,.Lscope28-.LFBB28
 1967               		.stabd	78,0,0
 1968               		.stabs	"sboxnet_clear_line_sensor:f(0,49)",36,0,577,sboxnet_clear_line_sensor
 1969               		.type	sboxnet_clear_line_sensor, @function
 1970               	sboxnet_clear_line_sensor:
 1971               		.stabd	46,0,0
 1972               		.stabn	68,0,577,.LM174-.LFBB29
 1973               	.LM174:
 1974               	.LFBB29:
 1975 0810 CF93      		push r28
 1976 0812 DF93      		push r29
 1977 0814 CDB7      		in r28,__SP_L__
 1978 0816 DEB7      		in r29,__SP_H__
 1979               	/* prologue: function */
 1980               	/* frame size = 0 */
 1981               	/* stack size = 2 */
 1982               	.L__stack_usage = 2
 1983               		.stabn	68,0,584,.LM175-.LFBB29
 1984               	.LM175:
 1985 0818 8CE3      		ldi r24,lo8(60)
 1986 081a 90E0      		ldi r25,0
 1987               		.stabn	68,0,584,.LM176-.LFBB29
 1988               	.LM176:
 1989 081c 24E0      		ldi r18,lo8(4)
 1990 081e FC01      		movw r30,r24
 1991 0820 2083      		st Z,r18
 1992               		.stabn	68,0,587,.LM177-.LFBB29
 1993               	.LM177:
 1994 0822 0000      		nop
 1995               	/* epilogue start */
GAS LISTING sboxnet2usb.s 			page 36


 1996 0824 DF91      		pop r29
 1997 0826 CF91      		pop r28
 1998 0828 0895      		ret
 1999               		.size	sboxnet_clear_line_sensor, .-sboxnet_clear_line_sensor
 2000               	.Lscope29:
 2001               		.stabs	"",36,0,0,.Lscope29-.LFBB29
 2002               		.stabd	78,0,0
 2003               		.stabs	"sboxnet_line_sensor_changed:f(2,2)",36,0,594,sboxnet_line_sensor_changed
 2004               		.type	sboxnet_line_sensor_changed, @function
 2005               	sboxnet_line_sensor_changed:
 2006               		.stabd	46,0,0
 2007               		.stabn	68,0,594,.LM178-.LFBB30
 2008               	.LM178:
 2009               	.LFBB30:
 2010 082a CF93      		push r28
 2011 082c DF93      		push r29
 2012 082e CDB7      		in r28,__SP_L__
 2013 0830 DEB7      		in r29,__SP_H__
 2014               	/* prologue: function */
 2015               	/* frame size = 0 */
 2016               	/* stack size = 2 */
 2017               	.L__stack_usage = 2
 2018               		.stabn	68,0,601,.LM179-.LFBB30
 2019               	.LM179:
 2020 0832 8CE3      		ldi r24,lo8(60)
 2021 0834 90E0      		ldi r25,0
 2022 0836 FC01      		movw r30,r24
 2023 0838 8081      		ld r24,Z
 2024 083a 8470      		andi r24,lo8(4)
 2025               	/* epilogue start */
 2026               		.stabn	68,0,604,.LM180-.LFBB30
 2027               	.LM180:
 2028 083c DF91      		pop r29
 2029 083e CF91      		pop r28
 2030 0840 0895      		ret
 2031               		.size	sboxnet_line_sensor_changed, .-sboxnet_line_sensor_changed
 2032               	.Lscope30:
 2033               		.stabs	"",36,0,0,.Lscope30-.LFBB30
 2034               		.stabd	78,0,0
 2035               		.stabs	"sboxnet_set_backoff_with_offset:f(0,49)",36,0,609,sboxnet_set_backoff_with_offset
 2036               		.stabs	"offset:p(2,4)",160,0,609,1
 2037               		.type	sboxnet_set_backoff_with_offset, @function
 2038               	sboxnet_set_backoff_with_offset:
 2039               		.stabd	46,0,0
 2040               		.stabn	68,0,609,.LM181-.LFBB31
 2041               	.LM181:
 2042               	.LFBB31:
 2043 0842 CF93      		push r28
 2044 0844 DF93      		push r29
 2045 0846 00D0      		rcall .
 2046 0848 CDB7      		in r28,__SP_L__
 2047 084a DEB7      		in r29,__SP_H__
 2048               	/* prologue: function */
 2049               	/* frame size = 2 */
 2050               	/* stack size = 4 */
 2051               	.L__stack_usage = 4
 2052 084c 9A83      		std Y+2,r25
GAS LISTING sboxnet2usb.s 			page 37


 2053 084e 8983      		std Y+1,r24
 2054               		.stabn	68,0,610,.LM182-.LFBB31
 2055               	.LM182:
 2056 0850 0E94 0000 		call sboxnet_clear_line_sensor
 2057               		.stabn	68,0,611,.LM183-.LFBB31
 2058               	.LM183:
 2059 0854 81E0      		ldi r24,lo8(1)
 2060 0856 8093 0000 		sts g_sboxnet,r24
 2061               		.stabn	68,0,612,.LM184-.LFBB31
 2062               	.LM184:
 2063 085a 8981      		ldd r24,Y+1
 2064 085c 9A81      		ldd r25,Y+2
 2065 085e 8858      		subi r24,-120
 2066 0860 9F4F      		sbci r25,-1
 2067 0862 0E94 0000 		call sboxnet_set_timer
 2068               		.stabn	68,0,613,.LM185-.LFBB31
 2069               	.LM185:
 2070 0866 0000      		nop
 2071               	/* epilogue start */
 2072 0868 0F90      		pop __tmp_reg__
 2073 086a 0F90      		pop __tmp_reg__
 2074 086c DF91      		pop r29
 2075 086e CF91      		pop r28
 2076 0870 0895      		ret
 2077               		.size	sboxnet_set_backoff_with_offset, .-sboxnet_set_backoff_with_offset
 2078               	.Lscope31:
 2079               		.stabs	"",36,0,0,.Lscope31-.LFBB31
 2080               		.stabd	78,0,0
 2081               		.stabs	"sboxnet_intr_usart_rx:f(0,49)",36,0,619,sboxnet_intr_usart_rx
 2082               		.type	sboxnet_intr_usart_rx, @function
 2083               	sboxnet_intr_usart_rx:
 2084               		.stabd	46,0,0
 2085               		.stabn	68,0,619,.LM186-.LFBB32
 2086               	.LM186:
 2087               	.LFBB32:
 2088 0872 CF93      		push r28
 2089 0874 DF93      		push r29
 2090 0876 00D0      		rcall .
 2091 0878 00D0      		rcall .
 2092 087a 00D0      		rcall .
 2093 087c CDB7      		in r28,__SP_L__
 2094 087e DEB7      		in r29,__SP_H__
 2095               	/* prologue: function */
 2096               	/* frame size = 6 */
 2097               	/* stack size = 8 */
 2098               	.L__stack_usage = 8
 2099               		.stabn	68,0,621,.LM187-.LFBB32
 2100               	.LM187:
 2101 0880 80E0      		ldi r24,lo8(g_sboxnet)
 2102 0882 90E0      		ldi r25,hi8(g_sboxnet)
 2103 0884 9A83      		std Y+2,r25
 2104 0886 8983      		std Y+1,r24
 2105               		.stabn	68,0,622,.LM188-.LFBB32
 2106               	.LM188:
 2107 0888 8981      		ldd r24,Y+1
 2108 088a 9A81      		ldd r25,Y+2
 2109 088c 9A83      		std Y+2,r25
GAS LISTING sboxnet2usb.s 			page 38


 2110 088e 8983      		std Y+1,r24
 2111               		.stabn	68,0,630,.LM189-.LFBB32
 2112               	.LM189:
 2113 0890 88EC      		ldi r24,lo8(-56)
 2114 0892 90E0      		ldi r25,0
 2115               		.stabn	68,0,630,.LM190-.LFBB32
 2116               	.LM190:
 2117 0894 FC01      		movw r30,r24
 2118 0896 8081      		ld r24,Z
 2119 0898 8B83      		std Y+3,r24
 2120               		.stabn	68,0,631,.LM191-.LFBB32
 2121               	.LM191:
 2122 089a 89EC      		ldi r24,lo8(-55)
 2123 089c 90E0      		ldi r25,0
 2124 089e FC01      		movw r30,r24
 2125 08a0 8081      		ld r24,Z
 2126               		.stabn	68,0,631,.LM192-.LFBB32
 2127               	.LM192:
 2128 08a2 8270      		andi r24,lo8(2)
 2129 08a4 8C83      		std Y+4,r24
 2130               		.stabn	68,0,632,.LM193-.LFBB32
 2131               	.LM193:
 2132 08a6 8EEC      		ldi r24,lo8(-50)
 2133 08a8 90E0      		ldi r25,0
 2134               		.stabn	68,0,632,.LM194-.LFBB32
 2135               	.LM194:
 2136 08aa FC01      		movw r30,r24
 2137 08ac 8081      		ld r24,Z
 2138 08ae 8D83      		std Y+5,r24
 2139               		.stabn	68,0,633,.LM195-.LFBB32
 2140               	.LM195:
 2141 08b0 8B81      		ldd r24,Y+3
 2142 08b2 8C71      		andi r24,lo8(28)
 2143 08b4 8B83      		std Y+3,r24
 2144               		.stabn	68,0,635,.LM196-.LFBB32
 2145               	.LM196:
 2146 08b6 8B81      		ldd r24,Y+3
 2147 08b8 8823      		tst r24
 2148 08ba 01F0      		breq .L61
 2149               		.stabn	68,0,636,.LM197-.LFBB32
 2150               	.LM197:
 2151 08bc 0E94 0000 		call sboxnet_debug_inc_recverrors
 2152               		.stabn	68,0,642,.LM198-.LFBB32
 2153               	.LM198:
 2154 08c0 8B81      		ldd r24,Y+3
 2155 08c2 882F      		mov r24,r24
 2156 08c4 90E0      		ldi r25,0
 2157 08c6 8071      		andi r24,16
 2158 08c8 9927      		clr r25
 2159 08ca 892B      		or r24,r25
 2160 08cc 01F0      		breq .L62
 2161               		.stabn	68,0,642,.LM199-.LFBB32
 2162               	.LM199:
 2163 08ce 8981      		ldd r24,Y+1
 2164 08d0 9A81      		ldd r25,Y+2
 2165 08d2 8B5D      		subi r24,-37
 2166 08d4 9D4F      		sbci r25,-3
GAS LISTING sboxnet2usb.s 			page 39


 2167 08d6 FC01      		movw r30,r24
 2168 08d8 8081      		ld r24,Z
 2169 08da 9181      		ldd r25,Z+1
 2170 08dc 9C01      		movw r18,r24
 2171 08de 2F5F      		subi r18,-1
 2172 08e0 3F4F      		sbci r19,-1
 2173 08e2 8981      		ldd r24,Y+1
 2174 08e4 9A81      		ldd r25,Y+2
 2175 08e6 8B5D      		subi r24,-37
 2176 08e8 9D4F      		sbci r25,-3
 2177 08ea FC01      		movw r30,r24
 2178 08ec 3183      		std Z+1,r19
 2179 08ee 2083      		st Z,r18
 2180               	.L62:
 2181               		.stabn	68,0,643,.LM200-.LFBB32
 2182               	.LM200:
 2183 08f0 8B81      		ldd r24,Y+3
 2184 08f2 882F      		mov r24,r24
 2185 08f4 90E0      		ldi r25,0
 2186 08f6 8870      		andi r24,8
 2187 08f8 9927      		clr r25
 2188 08fa 892B      		or r24,r25
 2189 08fc 01F0      		breq .L63
 2190               		.stabn	68,0,643,.LM201-.LFBB32
 2191               	.LM201:
 2192 08fe 0E94 0000 		call sboxnet_debug_inc_recverr_dor
 2193               	.L63:
 2194               		.stabn	68,0,644,.LM202-.LFBB32
 2195               	.LM202:
 2196 0902 8B81      		ldd r24,Y+3
 2197 0904 882F      		mov r24,r24
 2198 0906 90E0      		ldi r25,0
 2199 0908 8470      		andi r24,4
 2200 090a 9927      		clr r25
 2201 090c 892B      		or r24,r25
 2202 090e 01F4      		brne .+2
 2203 0910 00C0      		rjmp .L77
 2204               		.stabn	68,0,644,.LM203-.LFBB32
 2205               	.LM203:
 2206 0912 8981      		ldd r24,Y+1
 2207 0914 9A81      		ldd r25,Y+2
 2208 0916 895D      		subi r24,-39
 2209 0918 9D4F      		sbci r25,-3
 2210 091a FC01      		movw r30,r24
 2211 091c 8081      		ld r24,Z
 2212 091e 9181      		ldd r25,Z+1
 2213 0920 9C01      		movw r18,r24
 2214 0922 2F5F      		subi r18,-1
 2215 0924 3F4F      		sbci r19,-1
 2216 0926 8981      		ldd r24,Y+1
 2217 0928 9A81      		ldd r25,Y+2
 2218 092a 895D      		subi r24,-39
 2219 092c 9D4F      		sbci r25,-3
 2220 092e FC01      		movw r30,r24
 2221 0930 3183      		std Z+1,r19
 2222 0932 2083      		st Z,r18
 2223               		.stabn	68,0,646,.LM204-.LFBB32
GAS LISTING sboxnet2usb.s 			page 40


 2224               	.LM204:
 2225 0934 00C0      		rjmp .L77
 2226               	.L61:
 2227               		.stabn	68,0,648,.LM205-.LFBB32
 2228               	.LM205:
 2229 0936 8C81      		ldd r24,Y+4
 2230 0938 8823      		tst r24
 2231 093a 01F4      		brne .+2
 2232 093c 00C0      		rjmp .L66
 2233               		.stabn	68,0,649,.LM206-.LFBB32
 2234               	.LM206:
 2235 093e 8981      		ldd r24,Y+1
 2236 0940 9A81      		ldd r25,Y+2
 2237 0942 0996      		adiw r24,9
 2238 0944 0E94 0000 		call sboxnet_rb_write_count
 2239 0948 8823      		tst r24
 2240 094a 01F0      		breq .L67
 2241               		.stabn	68,0,650,.LM207-.LFBB32
 2242               	.LM207:
 2243 094c 8981      		ldd r24,Y+1
 2244 094e 9A81      		ldd r25,Y+2
 2245 0950 855D      		subi r24,-43
 2246 0952 9D4F      		sbci r25,-3
 2247 0954 FC01      		movw r30,r24
 2248 0956 8081      		ld r24,Z
 2249 0958 9181      		ldd r25,Z+1
 2250 095a 9C01      		movw r18,r24
 2251 095c 2F5F      		subi r18,-1
 2252 095e 3F4F      		sbci r19,-1
 2253 0960 8981      		ldd r24,Y+1
 2254 0962 9A81      		ldd r25,Y+2
 2255 0964 855D      		subi r24,-43
 2256 0966 9D4F      		sbci r25,-3
 2257 0968 FC01      		movw r30,r24
 2258 096a 3183      		std Z+1,r19
 2259 096c 2083      		st Z,r18
 2260               		.stabn	68,0,651,.LM208-.LFBB32
 2261               	.LM208:
 2262 096e 0E94 0000 		call sboxnet_debug_inc_recverrors
 2263               		.stabn	68,0,652,.LM209-.LFBB32
 2264               	.LM209:
 2265 0972 8981      		ldd r24,Y+1
 2266 0974 9A81      		ldd r25,Y+2
 2267 0976 0996      		adiw r24,9
 2268 0978 0E94 0000 		call sboxnet_rb_write_rollback
 2269               	.L67:
 2270               		.stabn	68,0,654,.LM210-.LFBB32
 2271               	.LM210:
 2272 097c 8091 0000 		lds r24,g_sboxnet_addr
 2273 0980 9D81      		ldd r25,Y+5
 2274 0982 9817      		cp r25,r24
 2275 0984 01F0      		breq .L68
 2276               		.stabn	68,0,654,.LM211-.LFBB32
 2277               	.LM211:
 2278 0986 8D81      		ldd r24,Y+5
 2279 0988 8F3F      		cpi r24,lo8(-1)
 2280 098a 01F0      		breq .L68
GAS LISTING sboxnet2usb.s 			page 41


 2281               		.stabn	68,0,656,.LM212-.LFBB32
 2282               	.LM212:
 2283 098c 8981      		ldd r24,Y+1
 2284 098e 9A81      		ldd r25,Y+2
 2285 0990 0196      		adiw r24,1
 2286 0992 FC01      		movw r30,r24
 2287 0994 8081      		ld r24,Z
 2288               		.stabn	68,0,656,.LM213-.LFBB32
 2289               	.LM213:
 2290 0996 882F      		mov r24,r24
 2291 0998 90E0      		ldi r25,0
 2292 099a 8170      		andi r24,1
 2293 099c 9927      		clr r25
 2294               		.stabn	68,0,656,.LM214-.LFBB32
 2295               	.LM214:
 2296 099e 892B      		or r24,r25
 2297 09a0 01F4      		brne .+2
 2298 09a2 00C0      		rjmp .L65
 2299               	.L68:
 2300               		.stabn	68,0,662,.LM215-.LFBB32
 2301               	.LM215:
 2302 09a4 88EC      		ldi r24,lo8(-56)
 2303 09a6 90E0      		ldi r25,0
 2304 09a8 28EC      		ldi r18,lo8(-56)
 2305 09aa 30E0      		ldi r19,0
 2306 09ac F901      		movw r30,r18
 2307 09ae 2081      		ld r18,Z
 2308 09b0 2E7F      		andi r18,lo8(-2)
 2309 09b2 FC01      		movw r30,r24
 2310 09b4 2083      		st Z,r18
 2311               		.stabn	68,0,664,.LM216-.LFBB32
 2312               	.LM216:
 2313 09b6 8981      		ldd r24,Y+1
 2314 09b8 9A81      		ldd r25,Y+2
 2315 09ba 0996      		adiw r24,9
 2316 09bc 60E0      		ldi r22,0
 2317 09be 0E94 0000 		call sboxnet_rb_write
 2318 09c2 8823      		tst r24
 2319 09c4 01F0      		breq .L78
 2320               		.stabn	68,0,667,.LM217-.LFBB32
 2321               	.LM217:
 2322 09c6 8981      		ldd r24,Y+1
 2323 09c8 9A81      		ldd r25,Y+2
 2324 09ca 0996      		adiw r24,9
 2325 09cc 6D81      		ldd r22,Y+5
 2326 09ce 0E94 0000 		call sboxnet_rb_write
 2327 09d2 8823      		tst r24
 2328 09d4 01F0      		breq .L70
 2329               		.stabn	68,0,668,.LM218-.LFBB32
 2330               	.LM218:
 2331 09d6 0E94 0000 		call sboxnet_debug_inc_recv_byte
 2332               		.stabn	68,0,669,.LM219-.LFBB32
 2333               	.LM219:
 2334 09da 8981      		ldd r24,Y+1
 2335 09dc 9A81      		ldd r25,Y+2
 2336 09de 26E0      		ldi r18,lo8(6)
 2337 09e0 FC01      		movw r30,r24
GAS LISTING sboxnet2usb.s 			page 42


 2338 09e2 2783      		std Z+7,r18
 2339               		.stabn	68,0,707,.LM220-.LFBB32
 2340               	.LM220:
 2341 09e4 00C0      		rjmp .L79
 2342               	.L78:
 2343               		.stabn	68,0,665,.LM221-.LFBB32
 2344               	.LM221:
 2345 09e6 0000      		nop
 2346               	.L70:
 2347               		.stabn	68,0,672,.LM222-.LFBB32
 2348               	.LM222:
 2349 09e8 0E94 0000 		call sboxnet_debug_inc_recverr_dor
 2350               		.stabn	68,0,673,.LM223-.LFBB32
 2351               	.LM223:
 2352 09ec 00C0      		rjmp .L72
 2353               	.L66:
 2354               	.LBB7:
 2355               		.stabn	68,0,681,.LM224-.LFBB32
 2356               	.LM224:
 2357 09ee 8981      		ldd r24,Y+1
 2358 09f0 9A81      		ldd r25,Y+2
 2359 09f2 0996      		adiw r24,9
 2360 09f4 0E94 0000 		call sboxnet_rb_write_count
 2361 09f8 8E83      		std Y+6,r24
 2362               		.stabn	68,0,682,.LM225-.LFBB32
 2363               	.LM225:
 2364 09fa 8981      		ldd r24,Y+1
 2365 09fc 9A81      		ldd r25,Y+2
 2366 09fe FC01      		movw r30,r24
 2367 0a00 9781      		ldd r25,Z+7
 2368 0a02 8E81      		ldd r24,Y+6
 2369 0a04 9817      		cp r25,r24
 2370 0a06 00F4      		brsh .L73
 2371               		.stabn	68,0,683,.LM226-.LFBB32
 2372               	.LM226:
 2373 0a08 8981      		ldd r24,Y+1
 2374 0a0a 9A81      		ldd r25,Y+2
 2375 0a0c 835D      		subi r24,-45
 2376 0a0e 9D4F      		sbci r25,-3
 2377 0a10 FC01      		movw r30,r24
 2378 0a12 8081      		ld r24,Z
 2379 0a14 9181      		ldd r25,Z+1
 2380 0a16 9C01      		movw r18,r24
 2381 0a18 2F5F      		subi r18,-1
 2382 0a1a 3F4F      		sbci r19,-1
 2383 0a1c 8981      		ldd r24,Y+1
 2384 0a1e 9A81      		ldd r25,Y+2
 2385 0a20 835D      		subi r24,-45
 2386 0a22 9D4F      		sbci r25,-3
 2387 0a24 FC01      		movw r30,r24
 2388 0a26 3183      		std Z+1,r19
 2389 0a28 2083      		st Z,r18
 2390               		.stabn	68,0,684,.LM227-.LFBB32
 2391               	.LM227:
 2392 0a2a 00C0      		rjmp .L72
 2393               	.L73:
 2394               		.stabn	68,0,686,.LM228-.LFBB32
GAS LISTING sboxnet2usb.s 			page 43


 2395               	.LM228:
 2396 0a2c 8E81      		ldd r24,Y+6
 2397 0a2e 8430      		cpi r24,lo8(4)
 2398 0a30 01F4      		brne .L74
 2399               		.stabn	68,0,687,.LM229-.LFBB32
 2400               	.LM229:
 2401 0a32 8D81      		ldd r24,Y+5
 2402 0a34 8F73      		andi r24,lo8(63)
 2403 0a36 26E0      		ldi r18,lo8(6)
 2404 0a38 280F      		add r18,r24
 2405 0a3a 8981      		ldd r24,Y+1
 2406 0a3c 9A81      		ldd r25,Y+2
 2407 0a3e FC01      		movw r30,r24
 2408 0a40 2783      		std Z+7,r18
 2409               	.L74:
 2410               		.stabn	68,0,689,.LM230-.LFBB32
 2411               	.LM230:
 2412 0a42 8981      		ldd r24,Y+1
 2413 0a44 9A81      		ldd r25,Y+2
 2414 0a46 0996      		adiw r24,9
 2415 0a48 6D81      		ldd r22,Y+5
 2416 0a4a 0E94 0000 		call sboxnet_rb_write
 2417 0a4e 8823      		tst r24
 2418 0a50 01F4      		brne .L75
 2419               		.stabn	68,0,690,.LM231-.LFBB32
 2420               	.LM231:
 2421 0a52 0E94 0000 		call sboxnet_debug_inc_recverr_dor
 2422               		.stabn	68,0,691,.LM232-.LFBB32
 2423               	.LM232:
 2424 0a56 00C0      		rjmp .L72
 2425               	.L75:
 2426               		.stabn	68,0,693,.LM233-.LFBB32
 2427               	.LM233:
 2428 0a58 0E94 0000 		call sboxnet_debug_inc_recv_byte
 2429               		.stabn	68,0,694,.LM234-.LFBB32
 2430               	.LM234:
 2431 0a5c 8981      		ldd r24,Y+1
 2432 0a5e 9A81      		ldd r25,Y+2
 2433 0a60 0996      		adiw r24,9
 2434 0a62 0E94 0000 		call sboxnet_rb_write_count
 2435 0a66 282F      		mov r18,r24
 2436 0a68 30E0      		ldi r19,0
 2437 0a6a 8981      		ldd r24,Y+1
 2438 0a6c 9A81      		ldd r25,Y+2
 2439 0a6e FC01      		movw r30,r24
 2440 0a70 8781      		ldd r24,Z+7
 2441 0a72 882F      		mov r24,r24
 2442 0a74 90E0      		ldi r25,0
 2443 0a76 0196      		adiw r24,1
 2444 0a78 2817      		cp r18,r24
 2445 0a7a 3907      		cpc r19,r25
 2446 0a7c 01F4      		brne .L79
 2447               		.stabn	68,0,695,.LM235-.LFBB32
 2448               	.LM235:
 2449 0a7e 8981      		ldd r24,Y+1
 2450 0a80 9A81      		ldd r25,Y+2
 2451 0a82 FC01      		movw r30,r24
GAS LISTING sboxnet2usb.s 			page 44


 2452 0a84 2781      		ldd r18,Z+7
 2453 0a86 8981      		ldd r24,Y+1
 2454 0a88 9A81      		ldd r25,Y+2
 2455 0a8a 0996      		adiw r24,9
 2456 0a8c 622F      		mov r22,r18
 2457 0a8e 0E94 0000 		call sboxnet_rb_put_first
 2458               		.stabn	68,0,696,.LM236-.LFBB32
 2459               	.LM236:
 2460 0a92 8981      		ldd r24,Y+1
 2461 0a94 9A81      		ldd r25,Y+2
 2462 0a96 FC01      		movw r30,r24
 2463 0a98 1782      		std Z+7,__zero_reg__
 2464               		.stabn	68,0,700,.LM237-.LFBB32
 2465               	.LM237:
 2466 0a9a 88EC      		ldi r24,lo8(-56)
 2467 0a9c 90E0      		ldi r25,0
 2468 0a9e 28EC      		ldi r18,lo8(-56)
 2469 0aa0 30E0      		ldi r19,0
 2470 0aa2 F901      		movw r30,r18
 2471 0aa4 2081      		ld r18,Z
 2472 0aa6 2160      		ori r18,lo8(1)
 2473 0aa8 FC01      		movw r30,r24
 2474 0aaa 2083      		st Z,r18
 2475               		.stabn	68,0,702,.LM238-.LFBB32
 2476               	.LM238:
 2477 0aac 8981      		ldd r24,Y+1
 2478 0aae 9A81      		ldd r25,Y+2
 2479 0ab0 0996      		adiw r24,9
 2480 0ab2 0E94 0000 		call sboxnet_rb_write_commit
 2481               		.stabn	68,0,703,.LM239-.LFBB32
 2482               	.LM239:
 2483 0ab6 8091 0000 		lds r24,g_sboxnet+527
 2484 0aba 9091 0000 		lds r25,g_sboxnet+527+1
 2485 0abe 0196      		adiw r24,1
 2486 0ac0 9093 0000 		sts g_sboxnet+527+1,r25
 2487 0ac4 8093 0000 		sts g_sboxnet+527,r24
 2488               	.LBE7:
 2489               		.stabn	68,0,707,.LM240-.LFBB32
 2490               	.LM240:
 2491 0ac8 00C0      		rjmp .L79
 2492               	.L72:
 2493               		.stabn	68,0,710,.LM241-.LFBB32
 2494               	.LM241:
 2495 0aca 0E94 0000 		call sboxnet_debug_inc_recverrors
 2496 0ace 00C0      		rjmp .L65
 2497               	.L77:
 2498               		.stabn	68,0,646,.LM242-.LFBB32
 2499               	.LM242:
 2500 0ad0 0000      		nop
 2501               	.L65:
 2502               		.stabn	68,0,712,.LM243-.LFBB32
 2503               	.LM243:
 2504 0ad2 8981      		ldd r24,Y+1
 2505 0ad4 9A81      		ldd r25,Y+2
 2506 0ad6 FC01      		movw r30,r24
 2507 0ad8 1782      		std Z+7,__zero_reg__
 2508               		.stabn	68,0,716,.LM244-.LFBB32
GAS LISTING sboxnet2usb.s 			page 45


 2509               	.LM244:
 2510 0ada 88EC      		ldi r24,lo8(-56)
 2511 0adc 90E0      		ldi r25,0
 2512 0ade 28EC      		ldi r18,lo8(-56)
 2513 0ae0 30E0      		ldi r19,0
 2514 0ae2 F901      		movw r30,r18
 2515 0ae4 2081      		ld r18,Z
 2516 0ae6 2160      		ori r18,lo8(1)
 2517 0ae8 FC01      		movw r30,r24
 2518 0aea 2083      		st Z,r18
 2519               		.stabn	68,0,718,.LM245-.LFBB32
 2520               	.LM245:
 2521 0aec 8981      		ldd r24,Y+1
 2522 0aee 9A81      		ldd r25,Y+2
 2523 0af0 0996      		adiw r24,9
 2524 0af2 0E94 0000 		call sboxnet_rb_write_rollback
 2525 0af6 00C0      		rjmp .L60
 2526               	.L79:
 2527               		.stabn	68,0,707,.LM246-.LFBB32
 2528               	.LM246:
 2529 0af8 0000      		nop
 2530               	.L60:
 2531               	/* epilogue start */
 2532               		.stabn	68,0,719,.LM247-.LFBB32
 2533               	.LM247:
 2534 0afa 2696      		adiw r28,6
 2535 0afc 0FB6      		in __tmp_reg__,__SREG__
 2536 0afe F894      		cli
 2537 0b00 DEBF      		out __SP_H__,r29
 2538 0b02 0FBE      		out __SREG__,__tmp_reg__
 2539 0b04 CDBF      		out __SP_L__,r28
 2540 0b06 DF91      		pop r29
 2541 0b08 CF91      		pop r28
 2542 0b0a 0895      		ret
 2543               		.size	sboxnet_intr_usart_rx, .-sboxnet_intr_usart_rx
 2544               		.stabs	"rxb8:(2,2)",128,0,620,4
 2545               		.stabs	"rxb:(2,2)",128,0,620,5
 2546               		.stabs	"rflags:(2,2)",128,0,620,3
 2547               		.stabs	"dev:(0,58)",128,0,621,1
 2548               		.stabn	192,0,0,.LFBB32-.LFBB32
 2549               		.stabs	"writecount:(2,2)",128,0,681,6
 2550               		.stabn	192,0,0,.LBB7-.LFBB32
 2551               		.stabn	224,0,0,.LBE7-.LFBB32
 2552               		.stabn	224,0,0,.Lscope32-.LFBB32
 2553               	.Lscope32:
 2554               		.stabs	"",36,0,0,.Lscope32-.LFBB32
 2555               		.stabd	78,0,0
 2556               		.stabs	"sboxnet_check_try_transmit:f(0,49)",36,0,721,sboxnet_check_try_transmit
 2557               		.type	sboxnet_check_try_transmit, @function
 2558               	sboxnet_check_try_transmit:
 2559               		.stabd	46,0,0
 2560               		.stabn	68,0,721,.LM248-.LFBB33
 2561               	.LM248:
 2562               	.LFBB33:
 2563 0b0c CF93      		push r28
 2564 0b0e DF93      		push r29
 2565 0b10 00D0      		rcall .
GAS LISTING sboxnet2usb.s 			page 46


 2566 0b12 00D0      		rcall .
 2567 0b14 CDB7      		in r28,__SP_L__
 2568 0b16 DEB7      		in r29,__SP_H__
 2569               	/* prologue: function */
 2570               	/* frame size = 4 */
 2571               	/* stack size = 6 */
 2572               	.L__stack_usage = 6
 2573               		.stabn	68,0,722,.LM249-.LFBB33
 2574               	.LM249:
 2575 0b18 80E0      		ldi r24,lo8(g_sboxnet)
 2576 0b1a 90E0      		ldi r25,hi8(g_sboxnet)
 2577 0b1c 9A83      		std Y+2,r25
 2578 0b1e 8983      		std Y+1,r24
 2579               		.stabn	68,0,723,.LM250-.LFBB33
 2580               	.LM250:
 2581 0b20 8981      		ldd r24,Y+1
 2582 0b22 9A81      		ldd r25,Y+2
 2583 0b24 9A83      		std Y+2,r25
 2584 0b26 8983      		std Y+1,r24
 2585               		.stabn	68,0,725,.LM251-.LFBB33
 2586               	.LM251:
 2587 0b28 8981      		ldd r24,Y+1
 2588 0b2a 9A81      		ldd r25,Y+2
 2589 0b2c FC01      		movw r30,r24
 2590 0b2e 8481      		ldd r24,Z+4
 2591 0b30 8823      		tst r24
 2592 0b32 01F4      		brne .L81
 2593               		.stabn	68,0,725,.LM252-.LFBB33
 2594               	.LM252:
 2595 0b34 8981      		ldd r24,Y+1
 2596 0b36 9A81      		ldd r25,Y+2
 2597 0b38 855F      		subi r24,-11
 2598 0b3a 9E4F      		sbci r25,-2
 2599 0b3c 0E94 0000 		call sboxnet_rb_getcount
 2600 0b40 8730      		cpi r24,lo8(7)
 2601 0b42 00F0      		brlo .L81
 2602               		.stabn	68,0,726,.LM253-.LFBB33
 2603               	.LM253:
 2604 0b44 8981      		ldd r24,Y+1
 2605 0b46 9A81      		ldd r25,Y+2
 2606 0b48 FC01      		movw r30,r24
 2607 0b4a 1382      		std Z+3,__zero_reg__
 2608               		.stabn	68,0,727,.LM254-.LFBB33
 2609               	.LM254:
 2610 0b4c 8981      		ldd r24,Y+1
 2611 0b4e 9A81      		ldd r25,Y+2
 2612 0b50 855F      		subi r24,-11
 2613 0b52 9E4F      		sbci r25,-2
 2614 0b54 0E94 0000 		call sboxnet_rb_read
 2615 0b58 282F      		mov r18,r24
 2616 0b5a 8981      		ldd r24,Y+1
 2617 0b5c 9A81      		ldd r25,Y+2
 2618 0b5e FC01      		movw r30,r24
 2619 0b60 2483      		std Z+4,r18
 2620               	.L81:
 2621               		.stabn	68,0,729,.LM255-.LFBB33
 2622               	.LM255:
GAS LISTING sboxnet2usb.s 			page 47


 2623 0b62 8981      		ldd r24,Y+1
 2624 0b64 9A81      		ldd r25,Y+2
 2625 0b66 FC01      		movw r30,r24
 2626 0b68 8481      		ldd r24,Z+4
 2627 0b6a 8823      		tst r24
 2628 0b6c 01F0      		breq .L83
 2629               		.stabn	68,0,729,.LM256-.LFBB33
 2630               	.LM256:
 2631 0b6e 8981      		ldd r24,Y+1
 2632 0b70 9A81      		ldd r25,Y+2
 2633 0b72 FC01      		movw r30,r24
 2634 0b74 8381      		ldd r24,Z+3
 2635 0b76 8823      		tst r24
 2636 0b78 01F4      		brne .L83
 2637               		.stabn	68,0,730,.LM257-.LFBB33
 2638               	.LM257:
 2639 0b7a 8981      		ldd r24,Y+1
 2640 0b7c 9A81      		ldd r25,Y+2
 2641 0b7e FC01      		movw r30,r24
 2642 0b80 8081      		ld r24,Z
 2643 0b82 8823      		tst r24
 2644 0b84 01F4      		brne .L83
 2645               	.LBB8:
 2646               		.stabn	68,0,731,.LM258-.LFBB33
 2647               	.LM258:
 2648 0b86 0E94 0000 		call sboxnet_prandom
 2649 0b8a 882F      		mov r24,r24
 2650 0b8c 90E0      		ldi r25,0
 2651 0b8e 8F73      		andi r24,63
 2652 0b90 9927      		clr r25
 2653 0b92 9C83      		std Y+4,r25
 2654 0b94 8B83      		std Y+3,r24
 2655               		.stabn	68,0,732,.LM259-.LFBB33
 2656               	.LM259:
 2657 0b96 8981      		ldd r24,Y+1
 2658 0b98 9A81      		ldd r25,Y+2
 2659 0b9a FC01      		movw r30,r24
 2660 0b9c 8281      		ldd r24,Z+2
 2661 0b9e 882F      		mov r24,r24
 2662 0ba0 90E0      		ldi r25,0
 2663 0ba2 0896      		adiw r24,8
 2664 0ba4 9C01      		movw r18,r24
 2665 0ba6 220F      		lsl r18
 2666 0ba8 331F      		rol r19
 2667 0baa 8B81      		ldd r24,Y+3
 2668 0bac 9C81      		ldd r25,Y+4
 2669 0bae 820F      		add r24,r18
 2670 0bb0 931F      		adc r25,r19
 2671 0bb2 0E94 0000 		call sboxnet_set_backoff_with_offset
 2672               	.L83:
 2673               	.LBE8:
 2674               		.stabn	68,0,735,.LM260-.LFBB33
 2675               	.LM260:
 2676 0bb6 0000      		nop
 2677               	/* epilogue start */
 2678 0bb8 0F90      		pop __tmp_reg__
 2679 0bba 0F90      		pop __tmp_reg__
GAS LISTING sboxnet2usb.s 			page 48


 2680 0bbc 0F90      		pop __tmp_reg__
 2681 0bbe 0F90      		pop __tmp_reg__
 2682 0bc0 DF91      		pop r29
 2683 0bc2 CF91      		pop r28
 2684 0bc4 0895      		ret
 2685               		.size	sboxnet_check_try_transmit, .-sboxnet_check_try_transmit
 2686               		.stabs	"dev:(0,58)",128,0,722,1
 2687               		.stabn	192,0,0,.LFBB33-.LFBB33
 2688               		.stabs	"offset:(2,4)",128,0,731,3
 2689               		.stabn	192,0,0,.LBB8-.LFBB33
 2690               		.stabn	224,0,0,.LBE8-.LFBB33
 2691               		.stabn	224,0,0,.Lscope33-.LFBB33
 2692               	.Lscope33:
 2693               		.stabs	"",36,0,0,.Lscope33-.LFBB33
 2694               		.stabd	78,0,0
 2695               		.stabs	"sboxnet_intr_usart_tx:f(0,49)",36,0,737,sboxnet_intr_usart_tx
 2696               		.type	sboxnet_intr_usart_tx, @function
 2697               	sboxnet_intr_usart_tx:
 2698               		.stabd	46,0,0
 2699               		.stabn	68,0,737,.LM261-.LFBB34
 2700               	.LM261:
 2701               	.LFBB34:
 2702 0bc6 CF93      		push r28
 2703 0bc8 DF93      		push r29
 2704 0bca CDB7      		in r28,__SP_L__
 2705 0bcc DEB7      		in r29,__SP_H__
 2706 0bce 2797      		sbiw r28,7
 2707 0bd0 0FB6      		in __tmp_reg__,__SREG__
 2708 0bd2 F894      		cli
 2709 0bd4 DEBF      		out __SP_H__,r29
 2710 0bd6 0FBE      		out __SREG__,__tmp_reg__
 2711 0bd8 CDBF      		out __SP_L__,r28
 2712               	/* prologue: function */
 2713               	/* frame size = 7 */
 2714               	/* stack size = 9 */
 2715               	.L__stack_usage = 9
 2716               		.stabn	68,0,738,.LM262-.LFBB34
 2717               	.LM262:
 2718 0bda 80E0      		ldi r24,lo8(g_sboxnet)
 2719 0bdc 90E0      		ldi r25,hi8(g_sboxnet)
 2720 0bde 9A83      		std Y+2,r25
 2721 0be0 8983      		std Y+1,r24
 2722               		.stabn	68,0,739,.LM263-.LFBB34
 2723               	.LM263:
 2724 0be2 8981      		ldd r24,Y+1
 2725 0be4 9A81      		ldd r25,Y+2
 2726 0be6 9A83      		std Y+2,r25
 2727 0be8 8983      		std Y+1,r24
 2728               		.stabn	68,0,748,.LM264-.LFBB34
 2729               	.LM264:
 2730 0bea 88EC      		ldi r24,lo8(-56)
 2731 0bec 90E0      		ldi r25,0
 2732               		.stabn	68,0,748,.LM265-.LFBB34
 2733               	.LM265:
 2734 0bee FC01      		movw r30,r24
 2735 0bf0 8081      		ld r24,Z
 2736 0bf2 8B83      		std Y+3,r24
GAS LISTING sboxnet2usb.s 			page 49


 2737               		.stabn	68,0,749,.LM266-.LFBB34
 2738               	.LM266:
 2739 0bf4 8B81      		ldd r24,Y+3
 2740 0bf6 8095      		com r24
 2741 0bf8 881F      		rol r24
 2742 0bfa 8827      		clr r24
 2743 0bfc 881F      		rol r24
 2744 0bfe 8C83      		std Y+4,r24
 2745               		.stabn	68,0,750,.LM267-.LFBB34
 2746               	.LM267:
 2747 0c00 8B81      		ldd r24,Y+3
 2748 0c02 8471      		andi r24,lo8(20)
 2749 0c04 8D83      		std Y+5,r24
 2750               		.stabn	68,0,751,.LM268-.LFBB34
 2751               	.LM268:
 2752 0c06 8EEC      		ldi r24,lo8(-50)
 2753 0c08 90E0      		ldi r25,0
 2754 0c0a FC01      		movw r30,r24
 2755 0c0c 2081      		ld r18,Z
 2756               		.stabn	68,0,751,.LM269-.LFBB34
 2757               	.LM269:
 2758 0c0e 8981      		ldd r24,Y+1
 2759 0c10 9A81      		ldd r25,Y+2
 2760 0c12 FC01      		movw r30,r24
 2761 0c14 9581      		ldd r25,Z+5
 2762 0c16 81E0      		ldi r24,lo8(1)
 2763 0c18 2917      		cp r18,r25
 2764 0c1a 01F4      		brne .L85
 2765 0c1c 80E0      		ldi r24,0
 2766               	.L85:
 2767               		.stabn	68,0,751,.LM270-.LFBB34
 2768               	.LM270:
 2769 0c1e 8E83      		std Y+6,r24
 2770               		.stabn	68,0,753,.LM271-.LFBB34
 2771               	.LM271:
 2772 0c20 8C81      		ldd r24,Y+4
 2773 0c22 8823      		tst r24
 2774 0c24 01F4      		brne .L86
 2775               		.stabn	68,0,753,.LM272-.LFBB34
 2776               	.LM272:
 2777 0c26 8D81      		ldd r24,Y+5
 2778 0c28 8823      		tst r24
 2779 0c2a 01F4      		brne .L86
 2780               		.stabn	68,0,753,.LM273-.LFBB34
 2781               	.LM273:
 2782 0c2c 8E81      		ldd r24,Y+6
 2783 0c2e 8823      		tst r24
 2784 0c30 01F4      		brne .+2
 2785 0c32 00C0      		rjmp .L87
 2786               	.L86:
 2787               		.stabn	68,0,754,.LM274-.LFBB34
 2788               	.LM274:
 2789 0c34 8C81      		ldd r24,Y+4
 2790 0c36 8823      		tst r24
 2791 0c38 01F0      		breq .L88
 2792               		.stabn	68,0,754,.LM275-.LFBB34
 2793               	.LM275:
GAS LISTING sboxnet2usb.s 			page 50


 2794 0c3a 8981      		ldd r24,Y+1
 2795 0c3c 9A81      		ldd r25,Y+2
 2796 0c3e 855E      		subi r24,-27
 2797 0c40 9D4F      		sbci r25,-3
 2798 0c42 FC01      		movw r30,r24
 2799 0c44 8081      		ld r24,Z
 2800 0c46 9181      		ldd r25,Z+1
 2801 0c48 9C01      		movw r18,r24
 2802 0c4a 2F5F      		subi r18,-1
 2803 0c4c 3F4F      		sbci r19,-1
 2804 0c4e 8981      		ldd r24,Y+1
 2805 0c50 9A81      		ldd r25,Y+2
 2806 0c52 855E      		subi r24,-27
 2807 0c54 9D4F      		sbci r25,-3
 2808 0c56 FC01      		movw r30,r24
 2809 0c58 3183      		std Z+1,r19
 2810 0c5a 2083      		st Z,r18
 2811               	.L88:
 2812               		.stabn	68,0,755,.LM276-.LFBB34
 2813               	.LM276:
 2814 0c5c 8D81      		ldd r24,Y+5
 2815 0c5e 8823      		tst r24
 2816 0c60 01F0      		breq .L89
 2817               		.stabn	68,0,755,.LM277-.LFBB34
 2818               	.LM277:
 2819 0c62 8981      		ldd r24,Y+1
 2820 0c64 9A81      		ldd r25,Y+2
 2821 0c66 835E      		subi r24,-29
 2822 0c68 9D4F      		sbci r25,-3
 2823 0c6a FC01      		movw r30,r24
 2824 0c6c 8081      		ld r24,Z
 2825 0c6e 9181      		ldd r25,Z+1
 2826 0c70 9C01      		movw r18,r24
 2827 0c72 2F5F      		subi r18,-1
 2828 0c74 3F4F      		sbci r19,-1
 2829 0c76 8981      		ldd r24,Y+1
 2830 0c78 9A81      		ldd r25,Y+2
 2831 0c7a 835E      		subi r24,-29
 2832 0c7c 9D4F      		sbci r25,-3
 2833 0c7e FC01      		movw r30,r24
 2834 0c80 3183      		std Z+1,r19
 2835 0c82 2083      		st Z,r18
 2836               	.L89:
 2837               		.stabn	68,0,756,.LM278-.LFBB34
 2838               	.LM278:
 2839 0c84 8E81      		ldd r24,Y+6
 2840 0c86 8823      		tst r24
 2841 0c88 01F0      		breq .L90
 2842               		.stabn	68,0,756,.LM279-.LFBB34
 2843               	.LM279:
 2844 0c8a 8981      		ldd r24,Y+1
 2845 0c8c 9A81      		ldd r25,Y+2
 2846 0c8e 815E      		subi r24,-31
 2847 0c90 9D4F      		sbci r25,-3
 2848 0c92 FC01      		movw r30,r24
 2849 0c94 8081      		ld r24,Z
 2850 0c96 9181      		ldd r25,Z+1
GAS LISTING sboxnet2usb.s 			page 51


 2851 0c98 9C01      		movw r18,r24
 2852 0c9a 2F5F      		subi r18,-1
 2853 0c9c 3F4F      		sbci r19,-1
 2854 0c9e 8981      		ldd r24,Y+1
 2855 0ca0 9A81      		ldd r25,Y+2
 2856 0ca2 815E      		subi r24,-31
 2857 0ca4 9D4F      		sbci r25,-3
 2858 0ca6 FC01      		movw r30,r24
 2859 0ca8 3183      		std Z+1,r19
 2860 0caa 2083      		st Z,r18
 2861               	.L90:
 2862               		.stabn	68,0,758,.LM280-.LFBB34
 2863               	.LM280:
 2864 0cac 8BE2      		ldi r24,lo8(43)
 2865 0cae 90E0      		ldi r25,0
 2866 0cb0 2BE2      		ldi r18,lo8(43)
 2867 0cb2 30E0      		ldi r19,0
 2868 0cb4 F901      		movw r30,r18
 2869 0cb6 2081      		ld r18,Z
 2870 0cb8 277F      		andi r18,lo8(-9)
 2871 0cba FC01      		movw r30,r24
 2872 0cbc 2083      		st Z,r18
 2873               		.stabn	68,0,763,.LM281-.LFBB34
 2874               	.LM281:
 2875 0cbe 89EC      		ldi r24,lo8(-55)
 2876 0cc0 90E0      		ldi r25,0
 2877 0cc2 29EC      		ldi r18,lo8(-55)
 2878 0cc4 30E0      		ldi r19,0
 2879 0cc6 F901      		movw r30,r18
 2880 0cc8 2081      		ld r18,Z
 2881 0cca 277A      		andi r18,lo8(-89)
 2882 0ccc FC01      		movw r30,r24
 2883 0cce 2083      		st Z,r18
 2884               		.stabn	68,0,765,.LM282-.LFBB34
 2885               	.LM282:
 2886 0cd0 8981      		ldd r24,Y+1
 2887 0cd2 9A81      		ldd r25,Y+2
 2888 0cd4 22E0      		ldi r18,lo8(2)
 2889 0cd6 FC01      		movw r30,r24
 2890 0cd8 2083      		st Z,r18
 2891               		.stabn	68,0,766,.LM283-.LFBB34
 2892               	.LM283:
 2893 0cda 8981      		ldd r24,Y+1
 2894 0cdc 9A81      		ldd r25,Y+2
 2895 0cde 875E      		subi r24,-25
 2896 0ce0 9D4F      		sbci r25,-3
 2897 0ce2 FC01      		movw r30,r24
 2898 0ce4 8081      		ld r24,Z
 2899 0ce6 9181      		ldd r25,Z+1
 2900 0ce8 9C01      		movw r18,r24
 2901 0cea 2F5F      		subi r18,-1
 2902 0cec 3F4F      		sbci r19,-1
 2903 0cee 8981      		ldd r24,Y+1
 2904 0cf0 9A81      		ldd r25,Y+2
 2905 0cf2 875E      		subi r24,-25
 2906 0cf4 9D4F      		sbci r25,-3
 2907 0cf6 FC01      		movw r30,r24
GAS LISTING sboxnet2usb.s 			page 52


 2908 0cf8 3183      		std Z+1,r19
 2909 0cfa 2083      		st Z,r18
 2910               		.stabn	68,0,767,.LM284-.LFBB34
 2911               	.LM284:
 2912 0cfc 8981      		ldd r24,Y+1
 2913 0cfe 9A81      		ldd r25,Y+2
 2914 0d00 FC01      		movw r30,r24
 2915 0d02 8281      		ldd r24,Z+2
 2916 0d04 8823      		tst r24
 2917 0d06 01F0      		breq .L93
 2918               		.stabn	68,0,768,.LM285-.LFBB34
 2919               	.LM285:
 2920 0d08 8981      		ldd r24,Y+1
 2921 0d0a 9A81      		ldd r25,Y+2
 2922 0d0c FC01      		movw r30,r24
 2923 0d0e 8281      		ldd r24,Z+2
 2924 0d10 2FEF      		ldi r18,lo8(-1)
 2925 0d12 280F      		add r18,r24
 2926 0d14 8981      		ldd r24,Y+1
 2927 0d16 9A81      		ldd r25,Y+2
 2928 0d18 FC01      		movw r30,r24
 2929 0d1a 2283      		std Z+2,r18
 2930               		.stabn	68,0,769,.LM286-.LFBB34
 2931               	.LM286:
 2932 0d1c 8981      		ldd r24,Y+1
 2933 0d1e 9A81      		ldd r25,Y+2
 2934 0d20 855F      		subi r24,-11
 2935 0d22 9E4F      		sbci r25,-2
 2936 0d24 0E94 0000 		call sboxnet_rb_read_rollback
 2937               		.stabn	68,0,771,.LM287-.LFBB34
 2938               	.LM287:
 2939 0d28 8981      		ldd r24,Y+1
 2940 0d2a 9A81      		ldd r25,Y+2
 2941 0d2c 8F5D      		subi r24,-33
 2942 0d2e 9D4F      		sbci r25,-3
 2943 0d30 FC01      		movw r30,r24
 2944 0d32 8081      		ld r24,Z
 2945 0d34 9181      		ldd r25,Z+1
 2946 0d36 9C01      		movw r18,r24
 2947 0d38 2F5F      		subi r18,-1
 2948 0d3a 3F4F      		sbci r19,-1
 2949 0d3c 8981      		ldd r24,Y+1
 2950 0d3e 9A81      		ldd r25,Y+2
 2951 0d40 8F5D      		subi r24,-33
 2952 0d42 9D4F      		sbci r25,-3
 2953 0d44 FC01      		movw r30,r24
 2954 0d46 3183      		std Z+1,r19
 2955 0d48 2083      		st Z,r18
 2956 0d4a 00C0      		rjmp .L92
 2957               	.L94:
 2958               		.stabn	68,0,774,.LM288-.LFBB34
 2959               	.LM288:
 2960 0d4c 8981      		ldd r24,Y+1
 2961 0d4e 9A81      		ldd r25,Y+2
 2962 0d50 855F      		subi r24,-11
 2963 0d52 9E4F      		sbci r25,-2
 2964 0d54 0E94 0000 		call sboxnet_rb_read
GAS LISTING sboxnet2usb.s 			page 53


 2965               		.stabn	68,0,775,.LM289-.LFBB34
 2966               	.LM289:
 2967 0d58 8981      		ldd r24,Y+1
 2968 0d5a 9A81      		ldd r25,Y+2
 2969 0d5c FC01      		movw r30,r24
 2970 0d5e 8381      		ldd r24,Z+3
 2971 0d60 21E0      		ldi r18,lo8(1)
 2972 0d62 280F      		add r18,r24
 2973 0d64 8981      		ldd r24,Y+1
 2974 0d66 9A81      		ldd r25,Y+2
 2975 0d68 FC01      		movw r30,r24
 2976 0d6a 2383      		std Z+3,r18
 2977               	.L93:
 2978               		.stabn	68,0,773,.LM290-.LFBB34
 2979               	.LM290:
 2980 0d6c 8981      		ldd r24,Y+1
 2981 0d6e 9A81      		ldd r25,Y+2
 2982 0d70 FC01      		movw r30,r24
 2983 0d72 2381      		ldd r18,Z+3
 2984 0d74 8981      		ldd r24,Y+1
 2985 0d76 9A81      		ldd r25,Y+2
 2986 0d78 FC01      		movw r30,r24
 2987 0d7a 8481      		ldd r24,Z+4
 2988 0d7c 2817      		cp r18,r24
 2989 0d7e 00F0      		brlo .L94
 2990               		.stabn	68,0,777,.LM291-.LFBB34
 2991               	.LM291:
 2992 0d80 8981      		ldd r24,Y+1
 2993 0d82 9A81      		ldd r25,Y+2
 2994 0d84 FC01      		movw r30,r24
 2995 0d86 1482      		std Z+4,__zero_reg__
 2996 0d88 8981      		ldd r24,Y+1
 2997 0d8a 9A81      		ldd r25,Y+2
 2998 0d8c FC01      		movw r30,r24
 2999 0d8e 2481      		ldd r18,Z+4
 3000 0d90 8981      		ldd r24,Y+1
 3001 0d92 9A81      		ldd r25,Y+2
 3002 0d94 FC01      		movw r30,r24
 3003 0d96 2383      		std Z+3,r18
 3004               		.stabn	68,0,778,.LM292-.LFBB34
 3005               	.LM292:
 3006 0d98 8981      		ldd r24,Y+1
 3007 0d9a 9A81      		ldd r25,Y+2
 3008 0d9c 29E1      		ldi r18,lo8(25)
 3009 0d9e FC01      		movw r30,r24
 3010 0da0 2283      		std Z+2,r18
 3011               		.stabn	68,0,779,.LM293-.LFBB34
 3012               	.LM293:
 3013 0da2 8981      		ldd r24,Y+1
 3014 0da4 9A81      		ldd r25,Y+2
 3015 0da6 855F      		subi r24,-11
 3016 0da8 9E4F      		sbci r25,-2
 3017 0daa 0E94 0000 		call sboxnet_rb_read_commit
 3018               		.stabn	68,0,780,.LM294-.LFBB34
 3019               	.LM294:
 3020 0dae 8981      		ldd r24,Y+1
 3021 0db0 9A81      		ldd r25,Y+2
GAS LISTING sboxnet2usb.s 			page 54


 3022 0db2 8F5C      		subi r24,-49
 3023 0db4 9D4F      		sbci r25,-3
 3024 0db6 FC01      		movw r30,r24
 3025 0db8 8081      		ld r24,Z
 3026 0dba 9181      		ldd r25,Z+1
 3027 0dbc 9C01      		movw r18,r24
 3028 0dbe 2F5F      		subi r18,-1
 3029 0dc0 3F4F      		sbci r19,-1
 3030 0dc2 8981      		ldd r24,Y+1
 3031 0dc4 9A81      		ldd r25,Y+2
 3032 0dc6 8F5C      		subi r24,-49
 3033 0dc8 9D4F      		sbci r25,-3
 3034 0dca FC01      		movw r30,r24
 3035 0dcc 3183      		std Z+1,r19
 3036 0dce 2083      		st Z,r18
 3037               	.L92:
 3038               		.stabn	68,0,782,.LM295-.LFBB34
 3039               	.LM295:
 3040 0dd0 8981      		ldd r24,Y+1
 3041 0dd2 9A81      		ldd r25,Y+2
 3042 0dd4 FC01      		movw r30,r24
 3043 0dd6 1482      		std Z+4,__zero_reg__
 3044 0dd8 8981      		ldd r24,Y+1
 3045 0dda 9A81      		ldd r25,Y+2
 3046 0ddc FC01      		movw r30,r24
 3047 0dde 2481      		ldd r18,Z+4
 3048 0de0 8981      		ldd r24,Y+1
 3049 0de2 9A81      		ldd r25,Y+2
 3050 0de4 FC01      		movw r30,r24
 3051 0de6 2383      		std Z+3,r18
 3052               		.stabn	68,0,784,.LM296-.LFBB34
 3053               	.LM296:
 3054 0de8 80E8      		ldi r24,lo8(-128)
 3055 0dea 90E0      		ldi r25,0
 3056 0dec 0E94 0000 		call sboxnet_set_timer
 3057               		.stabn	68,0,785,.LM297-.LFBB34
 3058               	.LM297:
 3059 0df0 00C0      		rjmp .L84
 3060               	.L87:
 3061               		.stabn	68,0,792,.LM298-.LFBB34
 3062               	.LM298:
 3063 0df2 89EC      		ldi r24,lo8(-55)
 3064 0df4 90E0      		ldi r25,0
 3065 0df6 29EC      		ldi r18,lo8(-55)
 3066 0df8 30E0      		ldi r19,0
 3067 0dfa F901      		movw r30,r18
 3068 0dfc 2081      		ld r18,Z
 3069 0dfe 2F76      		andi r18,lo8(111)
 3070 0e00 FC01      		movw r30,r24
 3071 0e02 2083      		st Z,r18
 3072               		.stabn	68,0,793,.LM299-.LFBB34
 3073               	.LM299:
 3074 0e04 89EC      		ldi r24,lo8(-55)
 3075 0e06 90E0      		ldi r25,0
 3076 0e08 29EC      		ldi r18,lo8(-55)
 3077 0e0a 30E0      		ldi r19,0
 3078 0e0c F901      		movw r30,r18
GAS LISTING sboxnet2usb.s 			page 55


 3079 0e0e 2081      		ld r18,Z
 3080 0e10 2061      		ori r18,lo8(16)
 3081 0e12 FC01      		movw r30,r24
 3082 0e14 2083      		st Z,r18
 3083               		.stabn	68,0,796,.LM300-.LFBB34
 3084               	.LM300:
 3085 0e16 8981      		ldd r24,Y+1
 3086 0e18 9A81      		ldd r25,Y+2
 3087 0e1a FC01      		movw r30,r24
 3088 0e1c 2381      		ldd r18,Z+3
 3089 0e1e 8981      		ldd r24,Y+1
 3090 0e20 9A81      		ldd r25,Y+2
 3091 0e22 FC01      		movw r30,r24
 3092 0e24 8481      		ldd r24,Z+4
 3093 0e26 2817      		cp r18,r24
 3094 0e28 00F4      		brsh .L96
 3095               	.LBB9:
 3096               		.stabn	68,0,797,.LM301-.LFBB34
 3097               	.LM301:
 3098 0e2a 8981      		ldd r24,Y+1
 3099 0e2c 9A81      		ldd r25,Y+2
 3100 0e2e 855F      		subi r24,-11
 3101 0e30 9E4F      		sbci r25,-2
 3102 0e32 0E94 0000 		call sboxnet_rb_read
 3103 0e36 8F83      		std Y+7,r24
 3104               		.stabn	68,0,798,.LM302-.LFBB34
 3105               	.LM302:
 3106 0e38 8981      		ldd r24,Y+1
 3107 0e3a 9A81      		ldd r25,Y+2
 3108 0e3c FC01      		movw r30,r24
 3109 0e3e 8381      		ldd r24,Z+3
 3110 0e40 21E0      		ldi r18,lo8(1)
 3111 0e42 280F      		add r18,r24
 3112 0e44 8981      		ldd r24,Y+1
 3113 0e46 9A81      		ldd r25,Y+2
 3114 0e48 FC01      		movw r30,r24
 3115 0e4a 2383      		std Z+3,r18
 3116               		.stabn	68,0,799,.LM303-.LFBB34
 3117               	.LM303:
 3118 0e4c 8981      		ldd r24,Y+1
 3119 0e4e 9A81      		ldd r25,Y+2
 3120 0e50 2F81      		ldd r18,Y+7
 3121 0e52 FC01      		movw r30,r24
 3122 0e54 2583      		std Z+5,r18
 3123               		.stabn	68,0,804,.LM304-.LFBB34
 3124               	.LM304:
 3125 0e56 89EC      		ldi r24,lo8(-55)
 3126 0e58 90E0      		ldi r25,0
 3127 0e5a 29EC      		ldi r18,lo8(-55)
 3128 0e5c 30E0      		ldi r19,0
 3129 0e5e F901      		movw r30,r18
 3130 0e60 2081      		ld r18,Z
 3131 0e62 2E7F      		andi r18,lo8(-2)
 3132 0e64 FC01      		movw r30,r24
 3133 0e66 2083      		st Z,r18
 3134               		.stabn	68,0,805,.LM305-.LFBB34
 3135               	.LM305:
GAS LISTING sboxnet2usb.s 			page 56


 3136 0e68 8EEC      		ldi r24,lo8(-50)
 3137 0e6a 90E0      		ldi r25,0
 3138               		.stabn	68,0,805,.LM306-.LFBB34
 3139               	.LM306:
 3140 0e6c 2F81      		ldd r18,Y+7
 3141 0e6e FC01      		movw r30,r24
 3142 0e70 2083      		st Z,r18
 3143               	.LBE9:
 3144 0e72 00C0      		rjmp .L97
 3145               	.L96:
 3146               		.stabn	68,0,811,.LM307-.LFBB34
 3147               	.LM307:
 3148 0e74 89EC      		ldi r24,lo8(-55)
 3149 0e76 90E0      		ldi r25,0
 3150 0e78 29EC      		ldi r18,lo8(-55)
 3151 0e7a 30E0      		ldi r19,0
 3152 0e7c F901      		movw r30,r18
 3153 0e7e 2081      		ld r18,Z
 3154 0e80 2F7B      		andi r18,lo8(-65)
 3155 0e82 FC01      		movw r30,r24
 3156 0e84 2083      		st Z,r18
 3157               		.stabn	68,0,813,.LM308-.LFBB34
 3158               	.LM308:
 3159 0e86 8981      		ldd r24,Y+1
 3160 0e88 9A81      		ldd r25,Y+2
 3161 0e8a FC01      		movw r30,r24
 3162 0e8c 1482      		std Z+4,__zero_reg__
 3163               		.stabn	68,0,814,.LM309-.LFBB34
 3164               	.LM309:
 3165 0e8e 8981      		ldd r24,Y+1
 3166 0e90 9A81      		ldd r25,Y+2
 3167 0e92 FC01      		movw r30,r24
 3168 0e94 1382      		std Z+3,__zero_reg__
 3169               		.stabn	68,0,815,.LM310-.LFBB34
 3170               	.LM310:
 3171 0e96 8981      		ldd r24,Y+1
 3172 0e98 9A81      		ldd r25,Y+2
 3173 0e9a 855F      		subi r24,-11
 3174 0e9c 9E4F      		sbci r25,-2
 3175 0e9e 0E94 0000 		call sboxnet_rb_read_commit
 3176               		.stabn	68,0,816,.LM311-.LFBB34
 3177               	.LM311:
 3178 0ea2 8091 0000 		lds r24,g_sboxnet+535
 3179 0ea6 9091 0000 		lds r25,g_sboxnet+535+1
 3180 0eaa 0196      		adiw r24,1
 3181 0eac 9093 0000 		sts g_sboxnet+535+1,r25
 3182 0eb0 8093 0000 		sts g_sboxnet+535,r24
 3183               		.stabn	68,0,818,.LM312-.LFBB34
 3184               	.LM312:
 3185 0eb4 0E94 0000 		call sboxnet_receiver_enable
 3186               		.stabn	68,0,819,.LM313-.LFBB34
 3187               	.LM313:
 3188 0eb8 8981      		ldd r24,Y+1
 3189 0eba 9A81      		ldd r25,Y+2
 3190 0ebc FC01      		movw r30,r24
 3191 0ebe 8081      		ld r24,Z
 3192 0ec0 8330      		cpi r24,lo8(3)
GAS LISTING sboxnet2usb.s 			page 57


 3193 0ec2 01F4      		brne .L98
 3194               		.stabn	68,0,820,.LM314-.LFBB34
 3195               	.LM314:
 3196 0ec4 8981      		ldd r24,Y+1
 3197 0ec6 9A81      		ldd r25,Y+2
 3198 0ec8 FC01      		movw r30,r24
 3199 0eca 1082      		st Z,__zero_reg__
 3200               	.L98:
 3201               		.stabn	68,0,822,.LM315-.LFBB34
 3202               	.LM315:
 3203 0ecc 8981      		ldd r24,Y+1
 3204 0ece 9A81      		ldd r25,Y+2
 3205 0ed0 29E1      		ldi r18,lo8(25)
 3206 0ed2 FC01      		movw r30,r24
 3207 0ed4 2283      		std Z+2,r18
 3208               		.stabn	68,0,823,.LM316-.LFBB34
 3209               	.LM316:
 3210 0ed6 0E94 0000 		call sboxnet_check_try_transmit
 3211               	.L97:
 3212               		.stabn	68,0,825,.LM317-.LFBB34
 3213               	.LM317:
 3214 0eda 8981      		ldd r24,Y+1
 3215 0edc 9A81      		ldd r25,Y+2
 3216 0ede 8D5E      		subi r24,-19
 3217 0ee0 9D4F      		sbci r25,-3
 3218 0ee2 FC01      		movw r30,r24
 3219 0ee4 8081      		ld r24,Z
 3220 0ee6 9181      		ldd r25,Z+1
 3221 0ee8 9C01      		movw r18,r24
 3222 0eea 2F5F      		subi r18,-1
 3223 0eec 3F4F      		sbci r19,-1
 3224 0eee 8981      		ldd r24,Y+1
 3225 0ef0 9A81      		ldd r25,Y+2
 3226 0ef2 8D5E      		subi r24,-19
 3227 0ef4 9D4F      		sbci r25,-3
 3228 0ef6 FC01      		movw r30,r24
 3229 0ef8 3183      		std Z+1,r19
 3230 0efa 2083      		st Z,r18
 3231               	.L84:
 3232               	/* epilogue start */
 3233               		.stabn	68,0,826,.LM318-.LFBB34
 3234               	.LM318:
 3235 0efc 2796      		adiw r28,7
 3236 0efe 0FB6      		in __tmp_reg__,__SREG__
 3237 0f00 F894      		cli
 3238 0f02 DEBF      		out __SP_H__,r29
 3239 0f04 0FBE      		out __SREG__,__tmp_reg__
 3240 0f06 CDBF      		out __SP_L__,r28
 3241 0f08 DF91      		pop r29
 3242 0f0a CF91      		pop r28
 3243 0f0c 0895      		ret
 3244               		.size	sboxnet_intr_usart_tx, .-sboxnet_intr_usart_tx
 3245               		.stabs	"dev:(0,58)",128,0,738,1
 3246               		.stabs	"ucsra:(2,2)",128,0,748,3
 3247               		.stabs	"crxc:(2,2)",128,0,749,4
 3248               		.stabs	"cfe:(2,2)",128,0,750,5
 3249               		.stabs	"cudr:(2,2)",128,0,751,6
GAS LISTING sboxnet2usb.s 			page 58


 3250               		.stabn	192,0,0,.LFBB34-.LFBB34
 3251               		.stabs	"v:(2,2)",128,0,797,7
 3252               		.stabn	192,0,0,.LBB9-.LFBB34
 3253               		.stabn	224,0,0,.LBE9-.LFBB34
 3254               		.stabn	224,0,0,.Lscope34-.LFBB34
 3255               	.Lscope34:
 3256               		.stabs	"",36,0,0,.Lscope34-.LFBB34
 3257               		.stabd	78,0,0
 3258               		.stabs	"__vector_23:F(0,49)",36,0,838,__vector_23
 3259               	.global	__vector_23
 3260               		.type	__vector_23, @function
 3261               	__vector_23:
 3262               		.stabd	46,0,0
 3263               		.stabn	68,0,838,.LM319-.LFBB35
 3264               	.LM319:
 3265               	.LFBB35:
 3266 0f0e 1F92      		push r1
 3267 0f10 0F92      		push r0
 3268 0f12 0090 5F00 		lds r0,95
 3269 0f16 0F92      		push r0
 3270 0f18 1124      		clr __zero_reg__
 3271 0f1a 2F93      		push r18
 3272 0f1c 3F93      		push r19
 3273 0f1e 4F93      		push r20
 3274 0f20 5F93      		push r21
 3275 0f22 6F93      		push r22
 3276 0f24 7F93      		push r23
 3277 0f26 8F93      		push r24
 3278 0f28 9F93      		push r25
 3279 0f2a AF93      		push r26
 3280 0f2c BF93      		push r27
 3281 0f2e EF93      		push r30
 3282 0f30 FF93      		push r31
 3283 0f32 CF93      		push r28
 3284 0f34 DF93      		push r29
 3285 0f36 CDB7      		in r28,__SP_L__
 3286 0f38 DEB7      		in r29,__SP_H__
 3287               	/* prologue: Signal */
 3288               	/* frame size = 0 */
 3289               	/* stack size = 17 */
 3290               	.L__stack_usage = 17
 3291               		.stabn	68,0,839,.LM320-.LFBB35
 3292               	.LM320:
 3293 0f3a 0E94 0000 		call sboxnet_intr_usart_rx
 3294               		.stabn	68,0,840,.LM321-.LFBB35
 3295               	.LM321:
 3296 0f3e 0000      		nop
 3297               	/* epilogue start */
 3298 0f40 DF91      		pop r29
 3299 0f42 CF91      		pop r28
 3300 0f44 FF91      		pop r31
 3301 0f46 EF91      		pop r30
 3302 0f48 BF91      		pop r27
 3303 0f4a AF91      		pop r26
 3304 0f4c 9F91      		pop r25
 3305 0f4e 8F91      		pop r24
 3306 0f50 7F91      		pop r23
GAS LISTING sboxnet2usb.s 			page 59


 3307 0f52 6F91      		pop r22
 3308 0f54 5F91      		pop r21
 3309 0f56 4F91      		pop r20
 3310 0f58 3F91      		pop r19
 3311 0f5a 2F91      		pop r18
 3312 0f5c 0F90      		pop r0
 3313 0f5e 0092 5F00 		sts 95,r0
 3314 0f62 0F90      		pop r0
 3315 0f64 1F90      		pop r1
 3316 0f66 1895      		reti
 3317               		.size	__vector_23, .-__vector_23
 3318               	.Lscope35:
 3319               		.stabs	"",36,0,0,.Lscope35-.LFBB35
 3320               		.stabd	78,0,0
 3321               		.stabs	"__vector_25:F(0,49)",36,0,842,__vector_25
 3322               	.global	__vector_25
 3323               		.type	__vector_25, @function
 3324               	__vector_25:
 3325               		.stabd	46,0,0
 3326               		.stabn	68,0,842,.LM322-.LFBB36
 3327               	.LM322:
 3328               	.LFBB36:
 3329 0f68 1F92      		push r1
 3330 0f6a 0F92      		push r0
 3331 0f6c 0090 5F00 		lds r0,95
 3332 0f70 0F92      		push r0
 3333 0f72 1124      		clr __zero_reg__
 3334 0f74 2F93      		push r18
 3335 0f76 3F93      		push r19
 3336 0f78 4F93      		push r20
 3337 0f7a 5F93      		push r21
 3338 0f7c 6F93      		push r22
 3339 0f7e 7F93      		push r23
 3340 0f80 8F93      		push r24
 3341 0f82 9F93      		push r25
 3342 0f84 AF93      		push r26
 3343 0f86 BF93      		push r27
 3344 0f88 EF93      		push r30
 3345 0f8a FF93      		push r31
 3346 0f8c CF93      		push r28
 3347 0f8e DF93      		push r29
 3348 0f90 CDB7      		in r28,__SP_L__
 3349 0f92 DEB7      		in r29,__SP_H__
 3350               	/* prologue: Signal */
 3351               	/* frame size = 0 */
 3352               	/* stack size = 17 */
 3353               	.L__stack_usage = 17
 3354               		.stabn	68,0,843,.LM323-.LFBB36
 3355               	.LM323:
 3356 0f94 0E94 0000 		call sboxnet_intr_usart_tx
 3357               		.stabn	68,0,844,.LM324-.LFBB36
 3358               	.LM324:
 3359 0f98 0000      		nop
 3360               	/* epilogue start */
 3361 0f9a DF91      		pop r29
 3362 0f9c CF91      		pop r28
 3363 0f9e FF91      		pop r31
GAS LISTING sboxnet2usb.s 			page 60


 3364 0fa0 EF91      		pop r30
 3365 0fa2 BF91      		pop r27
 3366 0fa4 AF91      		pop r26
 3367 0fa6 9F91      		pop r25
 3368 0fa8 8F91      		pop r24
 3369 0faa 7F91      		pop r23
 3370 0fac 6F91      		pop r22
 3371 0fae 5F91      		pop r21
 3372 0fb0 4F91      		pop r20
 3373 0fb2 3F91      		pop r19
 3374 0fb4 2F91      		pop r18
 3375 0fb6 0F90      		pop r0
 3376 0fb8 0092 5F00 		sts 95,r0
 3377 0fbc 0F90      		pop r0
 3378 0fbe 1F90      		pop r1
 3379 0fc0 1895      		reti
 3380               		.size	__vector_25, .-__vector_25
 3381               	.Lscope36:
 3382               		.stabs	"",36,0,0,.Lscope36-.LFBB36
 3383               		.stabd	78,0,0
 3384               		.stabs	"sboxnet_timer_bit:f(0,49)",36,0,848,sboxnet_timer_bit
 3385               		.type	sboxnet_timer_bit, @function
 3386               	sboxnet_timer_bit:
 3387               		.stabd	46,0,0
 3388               		.stabn	68,0,848,.LM325-.LFBB37
 3389               	.LM325:
 3390               	.LFBB37:
 3391 0fc2 CF93      		push r28
 3392 0fc4 DF93      		push r29
 3393 0fc6 00D0      		rcall .
 3394 0fc8 00D0      		rcall .
 3395 0fca 1F92      		push __zero_reg__
 3396 0fcc CDB7      		in r28,__SP_L__
 3397 0fce DEB7      		in r29,__SP_H__
 3398               	/* prologue: function */
 3399               	/* frame size = 5 */
 3400               	/* stack size = 7 */
 3401               	.L__stack_usage = 7
 3402               		.stabn	68,0,849,.LM326-.LFBB37
 3403               	.LM326:
 3404 0fd0 80E0      		ldi r24,lo8(g_sboxnet)
 3405 0fd2 90E0      		ldi r25,hi8(g_sboxnet)
 3406 0fd4 9A83      		std Y+2,r25
 3407 0fd6 8983      		std Y+1,r24
 3408               		.stabn	68,0,854,.LM327-.LFBB37
 3409               	.LM327:
 3410 0fd8 8FE6      		ldi r24,lo8(111)
 3411 0fda 90E0      		ldi r25,0
 3412 0fdc 2FE6      		ldi r18,lo8(111)
 3413 0fde 30E0      		ldi r19,0
 3414 0fe0 F901      		movw r30,r18
 3415 0fe2 2081      		ld r18,Z
 3416 0fe4 2B7F      		andi r18,lo8(-5)
 3417 0fe6 FC01      		movw r30,r24
 3418 0fe8 2083      		st Z,r18
 3419               		.stabn	68,0,856,.LM328-.LFBB37
 3420               	.LM328:
GAS LISTING sboxnet2usb.s 			page 61


 3421 0fea 8981      		ldd r24,Y+1
 3422 0fec 9A81      		ldd r25,Y+2
 3423 0fee FC01      		movw r30,r24
 3424 0ff0 8081      		ld r24,Z
 3425 0ff2 8130      		cpi r24,lo8(1)
 3426 0ff4 01F0      		breq .+2
 3427 0ff6 00C0      		rjmp .L102
 3428               		.stabn	68,0,857,.LM329-.LFBB37
 3429               	.LM329:
 3430 0ff8 8981      		ldd r24,Y+1
 3431 0ffa 9A81      		ldd r25,Y+2
 3432 0ffc FC01      		movw r30,r24
 3433 0ffe 8481      		ldd r24,Z+4
 3434 1000 8823      		tst r24
 3435 1002 01F4      		brne .+2
 3436 1004 00C0      		rjmp .L103
 3437               		.stabn	68,0,857,.LM330-.LFBB37
 3438               	.LM330:
 3439 1006 8981      		ldd r24,Y+1
 3440 1008 9A81      		ldd r25,Y+2
 3441 100a FC01      		movw r30,r24
 3442 100c 8381      		ldd r24,Z+3
 3443 100e 8823      		tst r24
 3444 1010 01F0      		breq .+2
 3445 1012 00C0      		rjmp .L103
 3446               	.LBB10:
 3447               		.stabn	68,0,858,.LM331-.LFBB37
 3448               	.LM331:
 3449 1014 8981      		ldd r24,Y+1
 3450 1016 9A81      		ldd r25,Y+2
 3451 1018 855F      		subi r24,-11
 3452 101a 9E4F      		sbci r25,-2
 3453 101c 0E94 0000 		call sboxnet_rb_read_getone
 3454 1020 8B83      		std Y+3,r24
 3455               		.stabn	68,0,860,.LM332-.LFBB37
 3456               	.LM332:
 3457 1022 8BE2      		ldi r24,lo8(43)
 3458 1024 90E0      		ldi r25,0
 3459 1026 2BE2      		ldi r18,lo8(43)
 3460 1028 30E0      		ldi r19,0
 3461 102a F901      		movw r30,r18
 3462 102c 2081      		ld r18,Z
 3463 102e 2860      		ori r18,lo8(8)
 3464 1030 FC01      		movw r30,r24
 3465 1032 2083      		st Z,r18
 3466               		.stabn	68,0,865,.LM333-.LFBB37
 3467               	.LM333:
 3468 1034 89EC      		ldi r24,lo8(-55)
 3469 1036 90E0      		ldi r25,0
 3470 1038 29EC      		ldi r18,lo8(-55)
 3471 103a 30E0      		ldi r19,0
 3472 103c F901      		movw r30,r18
 3473 103e 2081      		ld r18,Z
 3474 1040 2960      		ori r18,lo8(9)
 3475 1042 FC01      		movw r30,r24
 3476 1044 2083      		st Z,r18
 3477               		.stabn	68,0,867,.LM334-.LFBB37
GAS LISTING sboxnet2usb.s 			page 62


 3478               	.LM334:
 3479 1046 0E94 0000 		call sboxnet_line_sensor_changed
 3480 104a 8823      		tst r24
 3481 104c 01F4      		brne .L104
 3482               		.stabn	68,0,867,.LM335-.LFBB37
 3483               	.LM335:
 3484 104e 89E2      		ldi r24,lo8(41)
 3485 1050 90E0      		ldi r25,0
 3486 1052 FC01      		movw r30,r24
 3487 1054 8081      		ld r24,Z
 3488               		.stabn	68,0,867,.LM336-.LFBB37
 3489               	.LM336:
 3490 1056 882F      		mov r24,r24
 3491 1058 90E0      		ldi r25,0
 3492 105a 8470      		andi r24,4
 3493 105c 9927      		clr r25
 3494               		.stabn	68,0,867,.LM337-.LFBB37
 3495               	.LM337:
 3496 105e 892B      		or r24,r25
 3497 1060 01F4      		brne .L105
 3498               	.L104:
 3499               	.LBB11:
 3500               		.stabn	68,0,868,.LM338-.LFBB37
 3501               	.LM338:
 3502 1062 0E94 0000 		call sboxnet_prandom
 3503 1066 882F      		mov r24,r24
 3504 1068 90E0      		ldi r25,0
 3505 106a 8F73      		andi r24,63
 3506 106c 9927      		clr r25
 3507 106e 9D83      		std Y+5,r25
 3508 1070 8C83      		std Y+4,r24
 3509               		.stabn	68,0,869,.LM339-.LFBB37
 3510               	.LM339:
 3511 1072 8981      		ldd r24,Y+1
 3512 1074 9A81      		ldd r25,Y+2
 3513 1076 FC01      		movw r30,r24
 3514 1078 8281      		ldd r24,Z+2
 3515 107a 882F      		mov r24,r24
 3516 107c 90E0      		ldi r25,0
 3517 107e 9C01      		movw r18,r24
 3518 1080 220F      		lsl r18
 3519 1082 331F      		rol r19
 3520 1084 8C81      		ldd r24,Y+4
 3521 1086 9D81      		ldd r25,Y+5
 3522 1088 820F      		add r24,r18
 3523 108a 931F      		adc r25,r19
 3524 108c 0E94 0000 		call sboxnet_set_backoff_with_offset
 3525               	.LBE11:
 3526               		.stabn	68,0,867,.LM340-.LFBB37
 3527               	.LM340:
 3528 1090 0000      		nop
 3529               	.LBE10:
 3530               		.stabn	68,0,857,.LM341-.LFBB37
 3531               	.LM341:
 3532 1092 00C0      		rjmp .L107
 3533               	.L105:
 3534               	.LBB12:
GAS LISTING sboxnet2usb.s 			page 63


 3535               		.stabn	68,0,880,.LM342-.LFBB37
 3536               	.LM342:
 3537 1094 89EC      		ldi r24,lo8(-55)
 3538 1096 90E0      		ldi r25,0
 3539 1098 29EC      		ldi r18,lo8(-55)
 3540 109a 30E0      		ldi r19,0
 3541 109c F901      		movw r30,r18
 3542 109e 2081      		ld r18,Z
 3543 10a0 2F76      		andi r18,lo8(111)
 3544 10a2 FC01      		movw r30,r24
 3545 10a4 2083      		st Z,r18
 3546               		.stabn	68,0,881,.LM343-.LFBB37
 3547               	.LM343:
 3548 10a6 89EC      		ldi r24,lo8(-55)
 3549 10a8 90E0      		ldi r25,0
 3550 10aa 29EC      		ldi r18,lo8(-55)
 3551 10ac 30E0      		ldi r19,0
 3552 10ae F901      		movw r30,r18
 3553 10b0 2081      		ld r18,Z
 3554 10b2 2065      		ori r18,lo8(80)
 3555 10b4 FC01      		movw r30,r24
 3556 10b6 2083      		st Z,r18
 3557               		.stabn	68,0,882,.LM344-.LFBB37
 3558               	.LM344:
 3559 10b8 8EEC      		ldi r24,lo8(-50)
 3560 10ba 90E0      		ldi r25,0
 3561               		.stabn	68,0,882,.LM345-.LFBB37
 3562               	.LM345:
 3563 10bc 2B81      		ldd r18,Y+3
 3564 10be FC01      		movw r30,r24
 3565 10c0 2083      		st Z,r18
 3566               		.stabn	68,0,883,.LM346-.LFBB37
 3567               	.LM346:
 3568 10c2 88EC      		ldi r24,lo8(-56)
 3569 10c4 90E0      		ldi r25,0
 3570 10c6 28EC      		ldi r18,lo8(-56)
 3571 10c8 30E0      		ldi r19,0
 3572 10ca F901      		movw r30,r18
 3573 10cc 2081      		ld r18,Z
 3574 10ce 2E7F      		andi r18,lo8(-2)
 3575 10d0 FC01      		movw r30,r24
 3576 10d2 2083      		st Z,r18
 3577               		.stabn	68,0,885,.LM347-.LFBB37
 3578               	.LM347:
 3579 10d4 8981      		ldd r24,Y+1
 3580 10d6 9A81      		ldd r25,Y+2
 3581 10d8 855F      		subi r24,-11
 3582 10da 9E4F      		sbci r25,-2
 3583 10dc 0E94 0000 		call sboxnet_rb_read
 3584               		.stabn	68,0,886,.LM348-.LFBB37
 3585               	.LM348:
 3586 10e0 8981      		ldd r24,Y+1
 3587 10e2 9A81      		ldd r25,Y+2
 3588 10e4 2B81      		ldd r18,Y+3
 3589 10e6 FC01      		movw r30,r24
 3590 10e8 2583      		std Z+5,r18
 3591               		.stabn	68,0,887,.LM349-.LFBB37
GAS LISTING sboxnet2usb.s 			page 64


 3592               	.LM349:
 3593 10ea 8981      		ldd r24,Y+1
 3594 10ec 9A81      		ldd r25,Y+2
 3595 10ee FC01      		movw r30,r24
 3596 10f0 8381      		ldd r24,Z+3
 3597 10f2 21E0      		ldi r18,lo8(1)
 3598 10f4 280F      		add r18,r24
 3599 10f6 8981      		ldd r24,Y+1
 3600 10f8 9A81      		ldd r25,Y+2
 3601 10fa FC01      		movw r30,r24
 3602 10fc 2383      		std Z+3,r18
 3603               		.stabn	68,0,888,.LM350-.LFBB37
 3604               	.LM350:
 3605 10fe 8981      		ldd r24,Y+1
 3606 1100 9A81      		ldd r25,Y+2
 3607 1102 23E0      		ldi r18,lo8(3)
 3608 1104 FC01      		movw r30,r24
 3609 1106 2083      		st Z,r18
 3610               	.LBE12:
 3611               		.stabn	68,0,857,.LM351-.LFBB37
 3612               	.LM351:
 3613 1108 00C0      		rjmp .L107
 3614               	.L103:
 3615               		.stabn	68,0,891,.LM352-.LFBB37
 3616               	.LM352:
 3617 110a 8981      		ldd r24,Y+1
 3618 110c 9A81      		ldd r25,Y+2
 3619 110e FC01      		movw r30,r24
 3620 1110 1082      		st Z,__zero_reg__
 3621               		.stabn	68,0,893,.LM353-.LFBB37
 3622               	.LM353:
 3623 1112 00C0      		rjmp .L101
 3624               	.L107:
 3625               		.stabn	68,0,893,.LM354-.LFBB37
 3626               	.LM354:
 3627 1114 00C0      		rjmp .L101
 3628               	.L102:
 3629               		.stabn	68,0,896,.LM355-.LFBB37
 3630               	.LM355:
 3631 1116 8981      		ldd r24,Y+1
 3632 1118 9A81      		ldd r25,Y+2
 3633 111a FC01      		movw r30,r24
 3634 111c 8081      		ld r24,Z
 3635 111e 8230      		cpi r24,lo8(2)
 3636 1120 01F4      		brne .L109
 3637               		.stabn	68,0,897,.LM356-.LFBB37
 3638               	.LM356:
 3639 1122 8BE2      		ldi r24,lo8(43)
 3640 1124 90E0      		ldi r25,0
 3641 1126 2BE2      		ldi r18,lo8(43)
 3642 1128 30E0      		ldi r19,0
 3643 112a F901      		movw r30,r18
 3644 112c 2081      		ld r18,Z
 3645 112e 2860      		ori r18,lo8(8)
 3646 1130 FC01      		movw r30,r24
 3647 1132 2083      		st Z,r18
 3648               		.stabn	68,0,898,.LM357-.LFBB37
GAS LISTING sboxnet2usb.s 			page 65


 3649               	.LM357:
 3650 1134 8981      		ldd r24,Y+1
 3651 1136 9A81      		ldd r25,Y+2
 3652 1138 24E0      		ldi r18,lo8(4)
 3653 113a FC01      		movw r30,r24
 3654 113c 2083      		st Z,r18
 3655               		.stabn	68,0,899,.LM358-.LFBB37
 3656               	.LM358:
 3657 113e 80E2      		ldi r24,lo8(32)
 3658 1140 90E0      		ldi r25,0
 3659 1142 0E94 0000 		call sboxnet_set_timer
 3660               		.stabn	68,0,900,.LM359-.LFBB37
 3661               	.LM359:
 3662 1146 0E94 0000 		call sboxnet_clear_line_sensor
 3663               		.stabn	68,0,901,.LM360-.LFBB37
 3664               	.LM360:
 3665 114a 00C0      		rjmp .L101
 3666               	.L109:
 3667               		.stabn	68,0,904,.LM361-.LFBB37
 3668               	.LM361:
 3669 114c 8981      		ldd r24,Y+1
 3670 114e 9A81      		ldd r25,Y+2
 3671 1150 FC01      		movw r30,r24
 3672 1152 8081      		ld r24,Z
 3673 1154 8430      		cpi r24,lo8(4)
 3674 1156 01F4      		brne .L101
 3675               		.stabn	68,0,905,.LM362-.LFBB37
 3676               	.LM362:
 3677 1158 0E94 0000 		call sboxnet_line_sensor_changed
 3678 115c 8823      		tst r24
 3679 115e 01F4      		brne .L110
 3680               		.stabn	68,0,905,.LM363-.LFBB37
 3681               	.LM363:
 3682 1160 89E2      		ldi r24,lo8(41)
 3683 1162 90E0      		ldi r25,0
 3684 1164 FC01      		movw r30,r24
 3685 1166 8081      		ld r24,Z
 3686               		.stabn	68,0,905,.LM364-.LFBB37
 3687               	.LM364:
 3688 1168 882F      		mov r24,r24
 3689 116a 90E0      		ldi r25,0
 3690 116c 8470      		andi r24,4
 3691 116e 9927      		clr r25
 3692               		.stabn	68,0,905,.LM365-.LFBB37
 3693               	.LM365:
 3694 1170 892B      		or r24,r25
 3695 1172 01F0      		breq .L110
 3696               		.stabn	68,0,906,.LM366-.LFBB37
 3697               	.LM366:
 3698 1174 0E94 0000 		call sboxnet_receiver_enable
 3699               		.stabn	68,0,907,.LM367-.LFBB37
 3700               	.LM367:
 3701 1178 8981      		ldd r24,Y+1
 3702 117a 9A81      		ldd r25,Y+2
 3703 117c FC01      		movw r30,r24
 3704 117e 1082      		st Z,__zero_reg__
 3705               		.stabn	68,0,908,.LM368-.LFBB37
GAS LISTING sboxnet2usb.s 			page 66


 3706               	.LM368:
 3707 1180 0E94 0000 		call sboxnet_check_try_transmit
 3708 1184 00C0      		rjmp .L111
 3709               	.L110:
 3710               		.stabn	68,0,910,.LM369-.LFBB37
 3711               	.LM369:
 3712 1186 0E94 0000 		call sboxnet_clear_line_sensor
 3713               		.stabn	68,0,911,.LM370-.LFBB37
 3714               	.LM370:
 3715 118a 80E2      		ldi r24,lo8(32)
 3716 118c 90E0      		ldi r25,0
 3717 118e 0E94 0000 		call sboxnet_set_timer
 3718               	.L111:
 3719               		.stabn	68,0,913,.LM371-.LFBB37
 3720               	.LM371:
 3721 1192 0000      		nop
 3722               	.L101:
 3723               	/* epilogue start */
 3724               		.stabn	68,0,915,.LM372-.LFBB37
 3725               	.LM372:
 3726 1194 0F90      		pop __tmp_reg__
 3727 1196 0F90      		pop __tmp_reg__
 3728 1198 0F90      		pop __tmp_reg__
 3729 119a 0F90      		pop __tmp_reg__
 3730 119c 0F90      		pop __tmp_reg__
 3731 119e DF91      		pop r29
 3732 11a0 CF91      		pop r28
 3733 11a2 0895      		ret
 3734               		.size	sboxnet_timer_bit, .-sboxnet_timer_bit
 3735               		.stabs	"dev:(0,58)",128,0,849,1
 3736               		.stabn	192,0,0,.LFBB37-.LFBB37
 3737               		.stabs	"d:(2,2)",128,0,858,3
 3738               		.stabn	192,0,0,.LBB10-.LFBB37
 3739               		.stabs	"offset:(2,4)",128,0,868,4
 3740               		.stabn	192,0,0,.LBB11-.LFBB37
 3741               		.stabn	224,0,0,.LBE11-.LFBB37
 3742               		.stabn	224,0,0,.LBE10-.LFBB37
 3743               		.stabs	"d:(2,2)",128,0,858,3
 3744               		.stabn	192,0,0,.LBB12-.LFBB37
 3745               		.stabn	224,0,0,.LBE12-.LFBB37
 3746               		.stabn	224,0,0,.Lscope37-.LFBB37
 3747               	.Lscope37:
 3748               		.stabs	"",36,0,0,.Lscope37-.LFBB37
 3749               		.stabd	78,0,0
 3750               		.stabs	"sboxnet_receive_msg:f(2,1)",36,0,920,sboxnet_receive_msg
 3751               		.stabs	"pmsg:p(0,59)=*(13,2)",160,0,920,19
 3752               		.stabs	"maxmsglen:p(2,2)",160,0,920,21
 3753               		.type	sboxnet_receive_msg, @function
 3754               	sboxnet_receive_msg:
 3755               		.stabd	46,0,0
 3756               		.stabn	68,0,920,.LM373-.LFBB38
 3757               	.LM373:
 3758               	.LFBB38:
 3759 11a4 CF93      		push r28
 3760 11a6 DF93      		push r29
 3761 11a8 CDB7      		in r28,__SP_L__
 3762 11aa DEB7      		in r29,__SP_H__
GAS LISTING sboxnet2usb.s 			page 67


 3763 11ac 6597      		sbiw r28,21
 3764 11ae 0FB6      		in __tmp_reg__,__SREG__
 3765 11b0 F894      		cli
 3766 11b2 DEBF      		out __SP_H__,r29
 3767 11b4 0FBE      		out __SREG__,__tmp_reg__
 3768 11b6 CDBF      		out __SP_L__,r28
 3769               	/* prologue: function */
 3770               	/* frame size = 21 */
 3771               	/* stack size = 23 */
 3772               	.L__stack_usage = 23
 3773 11b8 9C8B      		std Y+20,r25
 3774 11ba 8B8B      		std Y+19,r24
 3775 11bc 6D8B      		std Y+21,r22
 3776               		.stabn	68,0,921,.LM374-.LFBB38
 3777               	.LM374:
 3778 11be 8D89      		ldd r24,Y+21
 3779 11c0 8630      		cpi r24,lo8(6)
 3780 11c2 00F4      		brsh .L113
 3781               		.stabn	68,0,922,.LM375-.LFBB38
 3782               	.LM375:
 3783 11c4 8DEF      		ldi r24,lo8(-3)
 3784 11c6 00C0      		rjmp .L114
 3785               	.L113:
 3786               		.stabn	68,0,924,.LM376-.LFBB38
 3787               	.LM376:
 3788 11c8 80E0      		ldi r24,lo8(g_sboxnet)
 3789 11ca 90E0      		ldi r25,hi8(g_sboxnet)
 3790 11cc 9E87      		std Y+14,r25
 3791 11ce 8D87      		std Y+13,r24
 3792               		.stabn	68,0,925,.LM377-.LFBB38
 3793               	.LM377:
 3794 11d0 1982      		std Y+1,__zero_reg__
 3795               		.stabn	68,0,926,.LM378-.LFBB38
 3796               	.LM378:
 3797 11d2 86E0      		ldi r24,lo8(6)
 3798 11d4 8A83      		std Y+2,r24
 3799               	.LBB13:
 3800               		.stabn	68,0,928,.LM379-.LFBB38
 3801               	.LM379:
 3802 11d6 8FE5      		ldi r24,lo8(95)
 3803 11d8 90E0      		ldi r25,0
 3804 11da FC01      		movw r30,r24
 3805 11dc 8081      		ld r24,Z
 3806 11de 8F87      		std Y+15,r24
 3807 11e0 0E94 0000 		call __iCliRetVal
 3808 11e4 8C83      		std Y+4,r24
 3809 11e6 00C0      		rjmp .L115
 3810               	.L117:
 3811               		.stabn	68,0,929,.LM380-.LFBB38
 3812               	.LM380:
 3813 11e8 8D85      		ldd r24,Y+13
 3814 11ea 9E85      		ldd r25,Y+14
 3815 11ec 0996      		adiw r24,9
 3816 11ee 0E94 0000 		call sboxnet_rb_can_read_bytes
 3817 11f2 8B83      		std Y+3,r24
 3818               		.stabn	68,0,930,.LM381-.LFBB38
 3819               	.LM381:
GAS LISTING sboxnet2usb.s 			page 68


 3820 11f4 8B81      		ldd r24,Y+3
 3821 11f6 8730      		cpi r24,lo8(7)
 3822 11f8 00F0      		brlo .L116
 3823               		.stabn	68,0,931,.LM382-.LFBB38
 3824               	.LM382:
 3825 11fa 8D85      		ldd r24,Y+13
 3826 11fc 9E85      		ldd r25,Y+14
 3827 11fe 0996      		adiw r24,9
 3828 1200 0E94 0000 		call sboxnet_rb_read_getone
 3829 1204 8983      		std Y+1,r24
 3830               	.L116:
 3831               		.stabn	68,0,928,.LM383-.LFBB38
 3832               	.LM383:
 3833 1206 1C82      		std Y+4,__zero_reg__
 3834               	.L115:
 3835               		.stabn	68,0,928,.LM384-.LFBB38
 3836               	.LM384:
 3837 1208 8C81      		ldd r24,Y+4
 3838 120a 8823      		tst r24
 3839 120c 01F4      		brne .L117
 3840               		.stabn	68,0,928,.LM385-.LFBB38
 3841               	.LM385:
 3842 120e CE01      		movw r24,r28
 3843 1210 0F96      		adiw r24,15
 3844 1212 0E94 0000 		call __iRestore
 3845               	.LBE13:
 3846               		.stabn	68,0,933,.LM386-.LFBB38
 3847               	.LM386:
 3848 1216 9981      		ldd r25,Y+1
 3849 1218 8A81      		ldd r24,Y+2
 3850 121a 9817      		cp r25,r24
 3851 121c 00F4      		brsh .L118
 3852               		.stabn	68,0,934,.LM387-.LFBB38
 3853               	.LM387:
 3854 121e 8FEF      		ldi r24,lo8(-1)
 3855 1220 00C0      		rjmp .L114
 3856               	.L118:
 3857               		.stabn	68,0,936,.LM388-.LFBB38
 3858               	.LM388:
 3859 1222 8981      		ldd r24,Y+1
 3860 1224 882F      		mov r24,r24
 3861 1226 90E0      		ldi r25,0
 3862 1228 9C01      		movw r18,r24
 3863 122a 2F5F      		subi r18,-1
 3864 122c 3F4F      		sbci r19,-1
 3865 122e 8B81      		ldd r24,Y+3
 3866 1230 882F      		mov r24,r24
 3867 1232 90E0      		ldi r25,0
 3868 1234 8217      		cp r24,r18
 3869 1236 9307      		cpc r25,r19
 3870 1238 04F4      		brge .L119
 3871               		.stabn	68,0,937,.LM389-.LFBB38
 3872               	.LM389:
 3873 123a 8FEF      		ldi r24,lo8(-1)
 3874 123c 00C0      		rjmp .L114
 3875               	.L119:
 3876               		.stabn	68,0,939,.LM390-.LFBB38
GAS LISTING sboxnet2usb.s 			page 69


 3877               	.LM390:
 3878 123e 9981      		ldd r25,Y+1
 3879 1240 8D89      		ldd r24,Y+21
 3880 1242 8917      		cp r24,r25
 3881 1244 00F4      		brsh .L120
 3882               		.stabn	68,0,940,.LM391-.LFBB38
 3883               	.LM391:
 3884 1246 8DEF      		ldi r24,lo8(-3)
 3885 1248 00C0      		rjmp .L114
 3886               	.L120:
 3887               		.stabn	68,0,942,.LM392-.LFBB38
 3888               	.LM392:
 3889 124a 8981      		ldd r24,Y+1
 3890 124c 8634      		cpi r24,lo8(70)
 3891 124e 00F0      		brlo .L121
 3892               		.stabn	68,0,943,.LM393-.LFBB38
 3893               	.LM393:
 3894 1250 8CEF      		ldi r24,lo8(-4)
 3895 1252 00C0      		rjmp .L114
 3896               	.L121:
 3897               	.LBB14:
 3898               		.stabn	68,0,945,.LM394-.LFBB38
 3899               	.LM394:
 3900 1254 8FE5      		ldi r24,lo8(95)
 3901 1256 90E0      		ldi r25,0
 3902 1258 FC01      		movw r30,r24
 3903 125a 8081      		ld r24,Z
 3904 125c 888B      		std Y+16,r24
 3905 125e 0E94 0000 		call __iCliRetVal
 3906 1262 8D83      		std Y+5,r24
 3907 1264 00C0      		rjmp .L122
 3908               	.L123:
 3909               		.stabn	68,0,946,.LM395-.LFBB38
 3910               	.LM395:
 3911 1266 8D85      		ldd r24,Y+13
 3912 1268 9E85      		ldd r25,Y+14
 3913 126a 0996      		adiw r24,9
 3914 126c 0E94 0000 		call sboxnet_rb_read
 3915               		.stabn	68,0,945,.LM396-.LFBB38
 3916               	.LM396:
 3917 1270 1D82      		std Y+5,__zero_reg__
 3918               	.L122:
 3919               		.stabn	68,0,945,.LM397-.LFBB38
 3920               	.LM397:
 3921 1272 8D81      		ldd r24,Y+5
 3922 1274 8823      		tst r24
 3923 1276 01F4      		brne .L123
 3924               		.stabn	68,0,945,.LM398-.LFBB38
 3925               	.LM398:
 3926 1278 CE01      		movw r24,r28
 3927 127a 4096      		adiw r24,16
 3928 127c 0E94 0000 		call __iRestore
 3929               	.LBE14:
 3930               		.stabn	68,0,948,.LM399-.LFBB38
 3931               	.LM399:
 3932 1280 8B89      		ldd r24,Y+19
 3933 1282 9C89      		ldd r25,Y+20
GAS LISTING sboxnet2usb.s 			page 70


 3934 1284 9F83      		std Y+7,r25
 3935 1286 8E83      		std Y+6,r24
 3936               		.stabn	68,0,949,.LM400-.LFBB38
 3937               	.LM400:
 3938 1288 0E94 0000 		call sboxnet_crc8_init
 3939 128c 8887      		std Y+8,r24
 3940               	.LBB15:
 3941               		.stabn	68,0,950,.LM401-.LFBB38
 3942               	.LM401:
 3943 128e 1986      		std Y+9,__zero_reg__
 3944 1290 00C0      		rjmp .L124
 3945               	.L128:
 3946               	.LBB16:
 3947               	.LBB17:
 3948               		.stabn	68,0,952,.LM402-.LFBB38
 3949               	.LM402:
 3950 1292 8FE5      		ldi r24,lo8(95)
 3951 1294 90E0      		ldi r25,0
 3952 1296 FC01      		movw r30,r24
 3953 1298 8081      		ld r24,Z
 3954 129a 898B      		std Y+17,r24
 3955 129c 0E94 0000 		call __iCliRetVal
 3956 12a0 8B87      		std Y+11,r24
 3957 12a2 00C0      		rjmp .L125
 3958               	.L126:
 3959               		.stabn	68,0,953,.LM403-.LFBB38
 3960               	.LM403:
 3961 12a4 8D85      		ldd r24,Y+13
 3962 12a6 9E85      		ldd r25,Y+14
 3963 12a8 0996      		adiw r24,9
 3964 12aa 0E94 0000 		call sboxnet_rb_read
 3965 12ae 8A87      		std Y+10,r24
 3966               		.stabn	68,0,952,.LM404-.LFBB38
 3967               	.LM404:
 3968 12b0 1B86      		std Y+11,__zero_reg__
 3969               	.L125:
 3970               		.stabn	68,0,952,.LM405-.LFBB38
 3971               	.LM405:
 3972 12b2 8B85      		ldd r24,Y+11
 3973 12b4 8823      		tst r24
 3974 12b6 01F4      		brne .L126
 3975               		.stabn	68,0,952,.LM406-.LFBB38
 3976               	.LM406:
 3977 12b8 CE01      		movw r24,r28
 3978 12ba 4196      		adiw r24,17
 3979 12bc 0E94 0000 		call __iRestore
 3980               	.LBE17:
 3981               		.stabn	68,0,955,.LM407-.LFBB38
 3982               	.LM407:
 3983 12c0 8985      		ldd r24,Y+9
 3984 12c2 8330      		cpi r24,lo8(3)
 3985 12c4 01F4      		brne .L127
 3986               		.stabn	68,0,956,.LM408-.LFBB38
 3987               	.LM408:
 3988 12c6 8A85      		ldd r24,Y+10
 3989 12c8 8F73      		andi r24,lo8(63)
 3990 12ca 9A81      		ldd r25,Y+2
GAS LISTING sboxnet2usb.s 			page 71


 3991 12cc 890F      		add r24,r25
 3992 12ce 8A83      		std Y+2,r24
 3993               	.L127:
 3994               		.stabn	68,0,958,.LM409-.LFBB38
 3995               	.LM409:
 3996 12d0 6A85      		ldd r22,Y+10
 3997 12d2 8885      		ldd r24,Y+8
 3998 12d4 0E94 0000 		call sboxnet_crc8_add
 3999 12d8 8887      		std Y+8,r24
 4000               		.stabn	68,0,959,.LM410-.LFBB38
 4001               	.LM410:
 4002 12da 8E81      		ldd r24,Y+6
 4003 12dc 9F81      		ldd r25,Y+7
 4004 12de 9C01      		movw r18,r24
 4005 12e0 2F5F      		subi r18,-1
 4006 12e2 3F4F      		sbci r19,-1
 4007 12e4 3F83      		std Y+7,r19
 4008 12e6 2E83      		std Y+6,r18
 4009 12e8 2A85      		ldd r18,Y+10
 4010 12ea FC01      		movw r30,r24
 4011 12ec 2083      		st Z,r18
 4012               	.LBE16:
 4013               		.stabn	68,0,950,.LM411-.LFBB38
 4014               	.LM411:
 4015 12ee 8985      		ldd r24,Y+9
 4016 12f0 8F5F      		subi r24,lo8(-(1))
 4017 12f2 8987      		std Y+9,r24
 4018               	.L124:
 4019               		.stabn	68,0,950,.LM412-.LFBB38
 4020               	.LM412:
 4021 12f4 9985      		ldd r25,Y+9
 4022 12f6 8981      		ldd r24,Y+1
 4023 12f8 9817      		cp r25,r24
 4024 12fa 00F0      		brlo .L128
 4025               	.LBE15:
 4026               	.LBB18:
 4027               		.stabn	68,0,961,.LM413-.LFBB38
 4028               	.LM413:
 4029 12fc 8FE5      		ldi r24,lo8(95)
 4030 12fe 90E0      		ldi r25,0
 4031 1300 FC01      		movw r30,r24
 4032 1302 8081      		ld r24,Z
 4033 1304 8A8B      		std Y+18,r24
 4034 1306 0E94 0000 		call __iCliRetVal
 4035 130a 8C87      		std Y+12,r24
 4036 130c 00C0      		rjmp .L129
 4037               	.L130:
 4038               		.stabn	68,0,962,.LM414-.LFBB38
 4039               	.LM414:
 4040 130e 8D85      		ldd r24,Y+13
 4041 1310 9E85      		ldd r25,Y+14
 4042 1312 0996      		adiw r24,9
 4043 1314 0E94 0000 		call sboxnet_rb_read_commit
 4044               		.stabn	68,0,961,.LM415-.LFBB38
 4045               	.LM415:
 4046 1318 1C86      		std Y+12,__zero_reg__
 4047               	.L129:
GAS LISTING sboxnet2usb.s 			page 72


 4048               		.stabn	68,0,961,.LM416-.LFBB38
 4049               	.LM416:
 4050 131a 8C85      		ldd r24,Y+12
 4051 131c 8823      		tst r24
 4052 131e 01F4      		brne .L130
 4053               		.stabn	68,0,961,.LM417-.LFBB38
 4054               	.LM417:
 4055 1320 CE01      		movw r24,r28
 4056 1322 4296      		adiw r24,18
 4057 1324 0E94 0000 		call __iRestore
 4058               	.LBE18:
 4059               		.stabn	68,0,965,.LM418-.LFBB38
 4060               	.LM418:
 4061 1328 8885      		ldd r24,Y+8
 4062 132a 0E94 0000 		call sboxnet_crc8_ok
 4063 132e 8823      		tst r24
 4064 1330 01F4      		brne .L131
 4065               		.stabn	68,0,966,.LM419-.LFBB38
 4066               	.LM419:
 4067 1332 0E94 0000 		call sboxnet_debug_inc_recverrors
 4068               		.stabn	68,0,967,.LM420-.LFBB38
 4069               	.LM420:
 4070 1336 8091 0000 		lds r24,g_sboxnet+559
 4071 133a 9091 0000 		lds r25,g_sboxnet+559+1
 4072 133e 0196      		adiw r24,1
 4073 1340 9093 0000 		sts g_sboxnet+559+1,r25
 4074 1344 8093 0000 		sts g_sboxnet+559,r24
 4075               		.stabn	68,0,968,.LM421-.LFBB38
 4076               	.LM421:
 4077 1348 8EEF      		ldi r24,lo8(-2)
 4078 134a 00C0      		rjmp .L114
 4079               	.L131:
 4080               		.stabn	68,0,970,.LM422-.LFBB38
 4081               	.LM422:
 4082 134c 8091 0000 		lds r24,g_sboxnet+529
 4083 1350 9091 0000 		lds r25,g_sboxnet+529+1
 4084 1354 0196      		adiw r24,1
 4085 1356 9093 0000 		sts g_sboxnet+529+1,r25
 4086 135a 8093 0000 		sts g_sboxnet+529,r24
 4087               		.stabn	68,0,972,.LM423-.LFBB38
 4088               	.LM423:
 4089 135e 8981      		ldd r24,Y+1
 4090               	.L114:
 4091               	/* epilogue start */
 4092               		.stabn	68,0,973,.LM424-.LFBB38
 4093               	.LM424:
 4094 1360 6596      		adiw r28,21
 4095 1362 0FB6      		in __tmp_reg__,__SREG__
 4096 1364 F894      		cli
 4097 1366 DEBF      		out __SP_H__,r29
 4098 1368 0FBE      		out __SREG__,__tmp_reg__
 4099 136a CDBF      		out __SP_L__,r28
 4100 136c DF91      		pop r29
 4101 136e CF91      		pop r28
 4102 1370 0895      		ret
 4103               		.size	sboxnet_receive_msg, .-sboxnet_receive_msg
 4104               		.stabs	"dev:(0,58)",128,0,924,13
GAS LISTING sboxnet2usb.s 			page 73


 4105               		.stabs	"msglen:(2,2)",128,0,925,1
 4106               		.stabs	"maxb:(2,2)",128,0,926,2
 4107               		.stabs	"avail:(2,2)",128,0,927,3
 4108               		.stabs	"p:(0,60)=*(2,2)",128,0,948,6
 4109               		.stabs	"crc:(2,2)",128,0,949,8
 4110               		.stabn	192,0,0,.LFBB38-.LFBB38
 4111               		.stabs	"sreg_save:(2,2)",128,0,928,15
 4112               		.stabs	"__ToDo:(2,2)",128,0,928,4
 4113               		.stabn	192,0,0,.LBB13-.LFBB38
 4114               		.stabn	224,0,0,.LBE13-.LFBB38
 4115               		.stabs	"sreg_save:(2,2)",128,0,945,16
 4116               		.stabs	"__ToDo:(2,2)",128,0,945,5
 4117               		.stabn	192,0,0,.LBB14-.LFBB38
 4118               		.stabn	224,0,0,.LBE14-.LFBB38
 4119               		.stabs	"i:(2,2)",128,0,950,9
 4120               		.stabn	192,0,0,.LBB15-.LFBB38
 4121               		.stabs	"v:(2,2)",128,0,951,10
 4122               		.stabn	192,0,0,.LBB16-.LFBB38
 4123               		.stabs	"sreg_save:(2,2)",128,0,952,17
 4124               		.stabs	"__ToDo:(2,2)",128,0,952,11
 4125               		.stabn	192,0,0,.LBB17-.LFBB38
 4126               		.stabn	224,0,0,.LBE17-.LFBB38
 4127               		.stabn	224,0,0,.LBE16-.LFBB38
 4128               		.stabn	224,0,0,.LBE15-.LFBB38
 4129               		.stabs	"sreg_save:(2,2)",128,0,961,18
 4130               		.stabs	"__ToDo:(2,2)",128,0,961,12
 4131               		.stabn	192,0,0,.LBB18-.LFBB38
 4132               		.stabn	224,0,0,.LBE18-.LFBB38
 4133               		.stabn	224,0,0,.Lscope38-.LFBB38
 4134               	.Lscope38:
 4135               		.stabs	"",36,0,0,.Lscope38-.LFBB38
 4136               		.stabd	78,0,0
 4137               		.stabs	"sboxnet_send_msg:f(2,2)",36,0,978,sboxnet_send_msg
 4138               		.stabs	"pmsg:p(0,59)",160,0,978,21
 4139               		.type	sboxnet_send_msg, @function
 4140               	sboxnet_send_msg:
 4141               		.stabd	46,0,0
 4142               		.stabn	68,0,978,.LM425-.LFBB39
 4143               	.LM425:
 4144               	.LFBB39:
 4145 1372 CF93      		push r28
 4146 1374 DF93      		push r29
 4147 1376 CDB7      		in r28,__SP_L__
 4148 1378 DEB7      		in r29,__SP_H__
 4149 137a 6697      		sbiw r28,22
 4150 137c 0FB6      		in __tmp_reg__,__SREG__
 4151 137e F894      		cli
 4152 1380 DEBF      		out __SP_H__,r29
 4153 1382 0FBE      		out __SREG__,__tmp_reg__
 4154 1384 CDBF      		out __SP_L__,r28
 4155               	/* prologue: function */
 4156               	/* frame size = 22 */
 4157               	/* stack size = 24 */
 4158               	.L__stack_usage = 24
 4159 1386 9E8B      		std Y+22,r25
 4160 1388 8D8B      		std Y+21,r24
 4161               		.stabn	68,0,979,.LM426-.LFBB39
GAS LISTING sboxnet2usb.s 			page 74


 4162               	.LM426:
 4163 138a 80E0      		ldi r24,lo8(g_sboxnet)
 4164 138c 90E0      		ldi r25,hi8(g_sboxnet)
 4165 138e 9D87      		std Y+13,r25
 4166 1390 8C87      		std Y+12,r24
 4167               		.stabn	68,0,980,.LM427-.LFBB39
 4168               	.LM427:
 4169 1392 8D89      		ldd r24,Y+21
 4170 1394 9E89      		ldd r25,Y+22
 4171 1396 FC01      		movw r30,r24
 4172 1398 8381      		ldd r24,Z+3
 4173 139a 8F73      		andi r24,lo8(63)
 4174 139c 8A5F      		subi r24,lo8(-(6))
 4175 139e 8E87      		std Y+14,r24
 4176               	.LBB19:
 4177               		.stabn	68,0,983,.LM428-.LFBB39
 4178               	.LM428:
 4179 13a0 8FE5      		ldi r24,lo8(95)
 4180 13a2 90E0      		ldi r25,0
 4181 13a4 FC01      		movw r30,r24
 4182 13a6 8081      		ld r24,Z
 4183 13a8 8F87      		std Y+15,r24
 4184 13aa 0E94 0000 		call __iCliRetVal
 4185 13ae 8A83      		std Y+2,r24
 4186 13b0 00C0      		rjmp .L133
 4187               	.L134:
 4188               		.stabn	68,0,984,.LM429-.LFBB39
 4189               	.LM429:
 4190 13b2 8C85      		ldd r24,Y+12
 4191 13b4 9D85      		ldd r25,Y+13
 4192 13b6 855F      		subi r24,-11
 4193 13b8 9E4F      		sbci r25,-2
 4194 13ba 0E94 0000 		call sboxnet_rb_getfree
 4195 13be 8983      		std Y+1,r24
 4196               		.stabn	68,0,983,.LM430-.LFBB39
 4197               	.LM430:
 4198 13c0 1A82      		std Y+2,__zero_reg__
 4199               	.L133:
 4200               		.stabn	68,0,983,.LM431-.LFBB39
 4201               	.LM431:
 4202 13c2 8A81      		ldd r24,Y+2
 4203 13c4 8823      		tst r24
 4204 13c6 01F4      		brne .L134
 4205               		.stabn	68,0,983,.LM432-.LFBB39
 4206               	.LM432:
 4207 13c8 CE01      		movw r24,r28
 4208 13ca 0F96      		adiw r24,15
 4209 13cc 0E94 0000 		call __iRestore
 4210               	.LBE19:
 4211               		.stabn	68,0,986,.LM433-.LFBB39
 4212               	.LM433:
 4213 13d0 9981      		ldd r25,Y+1
 4214 13d2 8E85      		ldd r24,Y+14
 4215 13d4 8917      		cp r24,r25
 4216 13d6 00F0      		brlo .L135
 4217               		.stabn	68,0,987,.LM434-.LFBB39
 4218               	.LM434:
GAS LISTING sboxnet2usb.s 			page 75


 4219 13d8 81E0      		ldi r24,lo8(1)
 4220 13da 00C0      		rjmp .L136
 4221               	.L135:
 4222               	.LBB20:
 4223               		.stabn	68,0,991,.LM435-.LFBB39
 4224               	.LM435:
 4225 13dc 8FE5      		ldi r24,lo8(95)
 4226 13de 90E0      		ldi r25,0
 4227 13e0 FC01      		movw r30,r24
 4228 13e2 8081      		ld r24,Z
 4229 13e4 888B      		std Y+16,r24
 4230 13e6 0E94 0000 		call __iCliRetVal
 4231 13ea 8C83      		std Y+4,r24
 4232 13ec 00C0      		rjmp .L137
 4233               	.L138:
 4234               		.stabn	68,0,992,.LM436-.LFBB39
 4235               	.LM436:
 4236 13ee 8C85      		ldd r24,Y+12
 4237 13f0 9D85      		ldd r25,Y+13
 4238 13f2 855F      		subi r24,-11
 4239 13f4 9E4F      		sbci r25,-2
 4240 13f6 6E85      		ldd r22,Y+14
 4241 13f8 0E94 0000 		call sboxnet_rb_write
 4242 13fc 8B83      		std Y+3,r24
 4243               		.stabn	68,0,991,.LM437-.LFBB39
 4244               	.LM437:
 4245 13fe 1C82      		std Y+4,__zero_reg__
 4246               	.L137:
 4247               		.stabn	68,0,991,.LM438-.LFBB39
 4248               	.LM438:
 4249 1400 8C81      		ldd r24,Y+4
 4250 1402 8823      		tst r24
 4251 1404 01F4      		brne .L138
 4252               		.stabn	68,0,991,.LM439-.LFBB39
 4253               	.LM439:
 4254 1406 CE01      		movw r24,r28
 4255 1408 4096      		adiw r24,16
 4256 140a 0E94 0000 		call __iRestore
 4257               	.LBE20:
 4258               		.stabn	68,0,994,.LM440-.LFBB39
 4259               	.LM440:
 4260 140e 8B81      		ldd r24,Y+3
 4261 1410 8823      		tst r24
 4262 1412 01F4      		brne .+2
 4263 1414 00C0      		rjmp .L155
 4264               		.stabn	68,0,997,.LM441-.LFBB39
 4265               	.LM441:
 4266 1416 0E94 0000 		call sboxnet_crc8_init
 4267 141a 8D83      		std Y+5,r24
 4268               		.stabn	68,0,999,.LM442-.LFBB39
 4269               	.LM442:
 4270 141c 1E82      		std Y+6,__zero_reg__
 4271 141e 00C0      		rjmp .L141
 4272               	.L147:
 4273               	.LBB21:
 4274               		.stabn	68,0,1001,.LM443-.LFBB39
 4275               	.LM443:
GAS LISTING sboxnet2usb.s 			page 76


 4276 1420 8E81      		ldd r24,Y+6
 4277 1422 8130      		cpi r24,lo8(1)
 4278 1424 01F4      		brne .L142
 4279               		.stabn	68,0,1002,.LM444-.LFBB39
 4280               	.LM444:
 4281 1426 8091 0000 		lds r24,g_sboxnet_addr
 4282 142a 8F83      		std Y+7,r24
 4283 142c 00C0      		rjmp .L143
 4284               	.L142:
 4285               		.stabn	68,0,1004,.LM445-.LFBB39
 4286               	.LM445:
 4287 142e 8E81      		ldd r24,Y+6
 4288 1430 882F      		mov r24,r24
 4289 1432 90E0      		ldi r25,0
 4290 1434 2D89      		ldd r18,Y+21
 4291 1436 3E89      		ldd r19,Y+22
 4292 1438 820F      		add r24,r18
 4293 143a 931F      		adc r25,r19
 4294 143c FC01      		movw r30,r24
 4295 143e 8081      		ld r24,Z
 4296 1440 8F83      		std Y+7,r24
 4297               	.L143:
 4298               		.stabn	68,0,1006,.LM446-.LFBB39
 4299               	.LM446:
 4300 1442 6F81      		ldd r22,Y+7
 4301 1444 8D81      		ldd r24,Y+5
 4302 1446 0E94 0000 		call sboxnet_crc8_add
 4303 144a 8D83      		std Y+5,r24
 4304               	.LBB22:
 4305               		.stabn	68,0,1007,.LM447-.LFBB39
 4306               	.LM447:
 4307 144c 8FE5      		ldi r24,lo8(95)
 4308 144e 90E0      		ldi r25,0
 4309 1450 FC01      		movw r30,r24
 4310 1452 8081      		ld r24,Z
 4311 1454 898B      		std Y+17,r24
 4312 1456 0E94 0000 		call __iCliRetVal
 4313 145a 8887      		std Y+8,r24
 4314 145c 00C0      		rjmp .L144
 4315               	.L145:
 4316               		.stabn	68,0,1008,.LM448-.LFBB39
 4317               	.LM448:
 4318 145e 8C85      		ldd r24,Y+12
 4319 1460 9D85      		ldd r25,Y+13
 4320 1462 855F      		subi r24,-11
 4321 1464 9E4F      		sbci r25,-2
 4322 1466 6F81      		ldd r22,Y+7
 4323 1468 0E94 0000 		call sboxnet_rb_write
 4324 146c 8B83      		std Y+3,r24
 4325               		.stabn	68,0,1007,.LM449-.LFBB39
 4326               	.LM449:
 4327 146e 1886      		std Y+8,__zero_reg__
 4328               	.L144:
 4329               		.stabn	68,0,1007,.LM450-.LFBB39
 4330               	.LM450:
 4331 1470 8885      		ldd r24,Y+8
 4332 1472 8823      		tst r24
GAS LISTING sboxnet2usb.s 			page 77


 4333 1474 01F4      		brne .L145
 4334               		.stabn	68,0,1007,.LM451-.LFBB39
 4335               	.LM451:
 4336 1476 CE01      		movw r24,r28
 4337 1478 4196      		adiw r24,17
 4338 147a 0E94 0000 		call __iRestore
 4339               	.LBE22:
 4340               		.stabn	68,0,1010,.LM452-.LFBB39
 4341               	.LM452:
 4342 147e 8B81      		ldd r24,Y+3
 4343 1480 8823      		tst r24
 4344 1482 01F0      		breq .L156
 4345               	.LBE21:
 4346               		.stabn	68,0,999,.LM453-.LFBB39
 4347               	.LM453:
 4348 1484 8E81      		ldd r24,Y+6
 4349 1486 8F5F      		subi r24,lo8(-(1))
 4350 1488 8E83      		std Y+6,r24
 4351               	.L141:
 4352               		.stabn	68,0,999,.LM454-.LFBB39
 4353               	.LM454:
 4354 148a 8E81      		ldd r24,Y+6
 4355 148c 282F      		mov r18,r24
 4356 148e 30E0      		ldi r19,0
 4357 1490 8E85      		ldd r24,Y+14
 4358 1492 882F      		mov r24,r24
 4359 1494 90E0      		ldi r25,0
 4360 1496 0197      		sbiw r24,1
 4361 1498 2817      		cp r18,r24
 4362 149a 3907      		cpc r19,r25
 4363 149c 04F0      		brlt .L147
 4364               	.LBB23:
 4365               		.stabn	68,0,1014,.LM455-.LFBB39
 4366               	.LM455:
 4367 149e 8FE5      		ldi r24,lo8(95)
 4368 14a0 90E0      		ldi r25,0
 4369 14a2 FC01      		movw r30,r24
 4370 14a4 8081      		ld r24,Z
 4371 14a6 8A8B      		std Y+18,r24
 4372 14a8 0E94 0000 		call __iCliRetVal
 4373 14ac 8987      		std Y+9,r24
 4374 14ae 00C0      		rjmp .L148
 4375               	.L149:
 4376               		.stabn	68,0,1015,.LM456-.LFBB39
 4377               	.LM456:
 4378 14b0 8C85      		ldd r24,Y+12
 4379 14b2 9D85      		ldd r25,Y+13
 4380 14b4 855F      		subi r24,-11
 4381 14b6 9E4F      		sbci r25,-2
 4382 14b8 6D81      		ldd r22,Y+5
 4383 14ba 0E94 0000 		call sboxnet_rb_write
 4384 14be 8B83      		std Y+3,r24
 4385               		.stabn	68,0,1014,.LM457-.LFBB39
 4386               	.LM457:
 4387 14c0 1986      		std Y+9,__zero_reg__
 4388               	.L148:
 4389               		.stabn	68,0,1014,.LM458-.LFBB39
GAS LISTING sboxnet2usb.s 			page 78


 4390               	.LM458:
 4391 14c2 8985      		ldd r24,Y+9
 4392 14c4 8823      		tst r24
 4393 14c6 01F4      		brne .L149
 4394               		.stabn	68,0,1014,.LM459-.LFBB39
 4395               	.LM459:
 4396 14c8 CE01      		movw r24,r28
 4397 14ca 4296      		adiw r24,18
 4398 14cc 0E94 0000 		call __iRestore
 4399               	.LBE23:
 4400               		.stabn	68,0,1017,.LM460-.LFBB39
 4401               	.LM460:
 4402 14d0 8B81      		ldd r24,Y+3
 4403 14d2 8823      		tst r24
 4404 14d4 01F4      		brne .L150
 4405 14d6 00C0      		rjmp .L140
 4406               	.L155:
 4407               		.stabn	68,0,995,.LM461-.LFBB39
 4408               	.LM461:
 4409 14d8 0000      		nop
 4410 14da 00C0      		rjmp .L140
 4411               	.L156:
 4412               	.LBB24:
 4413               		.stabn	68,0,1011,.LM462-.LFBB39
 4414               	.LM462:
 4415 14dc 0000      		nop
 4416               	.L140:
 4417               	.LBE24:
 4418               	.LBB25:
 4419               		.stabn	68,0,1019,.LM463-.LFBB39
 4420               	.LM463:
 4421 14de 8FE5      		ldi r24,lo8(95)
 4422 14e0 90E0      		ldi r25,0
 4423 14e2 FC01      		movw r30,r24
 4424 14e4 8081      		ld r24,Z
 4425 14e6 8B8B      		std Y+19,r24
 4426 14e8 0E94 0000 		call __iCliRetVal
 4427 14ec 8A87      		std Y+10,r24
 4428 14ee 00C0      		rjmp .L151
 4429               	.L152:
 4430               		.stabn	68,0,1020,.LM464-.LFBB39
 4431               	.LM464:
 4432 14f0 8C85      		ldd r24,Y+12
 4433 14f2 9D85      		ldd r25,Y+13
 4434 14f4 855F      		subi r24,-11
 4435 14f6 9E4F      		sbci r25,-2
 4436 14f8 0E94 0000 		call sboxnet_rb_write_rollback
 4437               		.stabn	68,0,1019,.LM465-.LFBB39
 4438               	.LM465:
 4439 14fc 1A86      		std Y+10,__zero_reg__
 4440               	.L151:
 4441               		.stabn	68,0,1019,.LM466-.LFBB39
 4442               	.LM466:
 4443 14fe 8A85      		ldd r24,Y+10
 4444 1500 8823      		tst r24
 4445 1502 01F4      		brne .L152
 4446               		.stabn	68,0,1019,.LM467-.LFBB39
GAS LISTING sboxnet2usb.s 			page 79


 4447               	.LM467:
 4448 1504 CE01      		movw r24,r28
 4449 1506 4396      		adiw r24,19
 4450 1508 0E94 0000 		call __iRestore
 4451               	.LBE25:
 4452               		.stabn	68,0,1022,.LM468-.LFBB39
 4453               	.LM468:
 4454 150c 81E0      		ldi r24,lo8(1)
 4455 150e 00C0      		rjmp .L136
 4456               	.L150:
 4457               	.LBB26:
 4458               		.stabn	68,0,1024,.LM469-.LFBB39
 4459               	.LM469:
 4460 1510 8FE5      		ldi r24,lo8(95)
 4461 1512 90E0      		ldi r25,0
 4462 1514 FC01      		movw r30,r24
 4463 1516 8081      		ld r24,Z
 4464 1518 8C8B      		std Y+20,r24
 4465 151a 0E94 0000 		call __iCliRetVal
 4466 151e 8B87      		std Y+11,r24
 4467 1520 00C0      		rjmp .L153
 4468               	.L154:
 4469               		.stabn	68,0,1025,.LM470-.LFBB39
 4470               	.LM470:
 4471 1522 8C85      		ldd r24,Y+12
 4472 1524 9D85      		ldd r25,Y+13
 4473 1526 855F      		subi r24,-11
 4474 1528 9E4F      		sbci r25,-2
 4475 152a 0E94 0000 		call sboxnet_rb_write_commit
 4476               		.stabn	68,0,1026,.LM471-.LFBB39
 4477               	.LM471:
 4478 152e 0E94 0000 		call sboxnet_check_try_transmit
 4479               		.stabn	68,0,1024,.LM472-.LFBB39
 4480               	.LM472:
 4481 1532 1B86      		std Y+11,__zero_reg__
 4482               	.L153:
 4483               		.stabn	68,0,1024,.LM473-.LFBB39
 4484               	.LM473:
 4485 1534 8B85      		ldd r24,Y+11
 4486 1536 8823      		tst r24
 4487 1538 01F4      		brne .L154
 4488               		.stabn	68,0,1024,.LM474-.LFBB39
 4489               	.LM474:
 4490 153a CE01      		movw r24,r28
 4491 153c 4496      		adiw r24,20
 4492 153e 0E94 0000 		call __iRestore
 4493               	.LBE26:
 4494               		.stabn	68,0,1028,.LM475-.LFBB39
 4495               	.LM475:
 4496 1542 8091 0000 		lds r24,g_sboxnet+533
 4497 1546 9091 0000 		lds r25,g_sboxnet+533+1
 4498 154a 0196      		adiw r24,1
 4499 154c 9093 0000 		sts g_sboxnet+533+1,r25
 4500 1550 8093 0000 		sts g_sboxnet+533,r24
 4501               		.stabn	68,0,1029,.LM476-.LFBB39
 4502               	.LM476:
 4503 1554 80E0      		ldi r24,0
GAS LISTING sboxnet2usb.s 			page 80


 4504               	.L136:
 4505               	/* epilogue start */
 4506               		.stabn	68,0,1030,.LM477-.LFBB39
 4507               	.LM477:
 4508 1556 6696      		adiw r28,22
 4509 1558 0FB6      		in __tmp_reg__,__SREG__
 4510 155a F894      		cli
 4511 155c DEBF      		out __SP_H__,r29
 4512 155e 0FBE      		out __SREG__,__tmp_reg__
 4513 1560 CDBF      		out __SP_L__,r28
 4514 1562 DF91      		pop r29
 4515 1564 CF91      		pop r28
 4516 1566 0895      		ret
 4517               		.size	sboxnet_send_msg, .-sboxnet_send_msg
 4518               		.stabs	"dev:(0,58)",128,0,979,12
 4519               		.stabs	"msglen:(2,2)",128,0,980,14
 4520               		.stabs	"free:(2,2)",128,0,982,1
 4521               		.stabs	"rc:(2,2)",128,0,990,3
 4522               		.stabs	"crc:(2,2)",128,0,997,5
 4523               		.stabs	"i:(2,2)",128,0,998,6
 4524               		.stabn	192,0,0,.LFBB39-.LFBB39
 4525               		.stabs	"sreg_save:(2,2)",128,0,983,15
 4526               		.stabs	"__ToDo:(2,2)",128,0,983,2
 4527               		.stabn	192,0,0,.LBB19-.LFBB39
 4528               		.stabn	224,0,0,.LBE19-.LFBB39
 4529               		.stabs	"sreg_save:(2,2)",128,0,991,16
 4530               		.stabs	"__ToDo:(2,2)",128,0,991,4
 4531               		.stabn	192,0,0,.LBB20-.LFBB39
 4532               		.stabn	224,0,0,.LBE20-.LFBB39
 4533               		.stabs	"d:(2,2)",128,0,1000,7
 4534               		.stabn	192,0,0,.LBB21-.LFBB39
 4535               		.stabs	"sreg_save:(2,2)",128,0,1007,17
 4536               		.stabs	"__ToDo:(2,2)",128,0,1007,8
 4537               		.stabn	192,0,0,.LBB22-.LFBB39
 4538               		.stabn	224,0,0,.LBE22-.LFBB39
 4539               		.stabn	224,0,0,.LBE21-.LFBB39
 4540               		.stabs	"sreg_save:(2,2)",128,0,1014,18
 4541               		.stabs	"__ToDo:(2,2)",128,0,1014,9
 4542               		.stabn	192,0,0,.LBB23-.LFBB39
 4543               		.stabn	224,0,0,.LBE23-.LFBB39
 4544               		.stabs	"d:(2,2)",128,0,1000,7
 4545               		.stabn	192,0,0,.LBB24-.LFBB39
 4546               		.stabn	224,0,0,.LBE24-.LFBB39
 4547               		.stabs	"sreg_save:(2,2)",128,0,1019,19
 4548               		.stabs	"__ToDo:(2,2)",128,0,1019,10
 4549               		.stabn	192,0,0,.LBB25-.LFBB39
 4550               		.stabn	224,0,0,.LBE25-.LFBB39
 4551               		.stabs	"sreg_save:(2,2)",128,0,1024,20
 4552               		.stabs	"__ToDo:(2,2)",128,0,1024,11
 4553               		.stabn	192,0,0,.LBB26-.LFBB39
 4554               		.stabn	224,0,0,.LBE26-.LFBB39
 4555               		.stabn	224,0,0,.Lscope39-.LFBB39
 4556               	.Lscope39:
 4557               		.stabs	"",36,0,0,.Lscope39-.LFBB39
 4558               		.stabd	78,0,0
 4559               		.stabs	"sboxnet_can_send_msg:f(2,2)",36,0,1032,sboxnet_can_send_msg
 4560               		.stabs	"pmsg:p(0,59)",160,0,1032,5
GAS LISTING sboxnet2usb.s 			page 81


 4561               		.type	sboxnet_can_send_msg, @function
 4562               	sboxnet_can_send_msg:
 4563               		.stabd	46,0,0
 4564               		.stabn	68,0,1032,.LM478-.LFBB40
 4565               	.LM478:
 4566               	.LFBB40:
 4567 1568 CF93      		push r28
 4568 156a DF93      		push r29
 4569 156c 00D0      		rcall .
 4570 156e 00D0      		rcall .
 4571 1570 00D0      		rcall .
 4572 1572 CDB7      		in r28,__SP_L__
 4573 1574 DEB7      		in r29,__SP_H__
 4574               	/* prologue: function */
 4575               	/* frame size = 6 */
 4576               	/* stack size = 8 */
 4577               	.L__stack_usage = 8
 4578 1576 9E83      		std Y+6,r25
 4579 1578 8D83      		std Y+5,r24
 4580               		.stabn	68,0,1033,.LM479-.LFBB40
 4581               	.LM479:
 4582 157a 8D81      		ldd r24,Y+5
 4583 157c 9E81      		ldd r25,Y+6
 4584 157e FC01      		movw r30,r24
 4585 1580 8381      		ldd r24,Z+3
 4586 1582 8F73      		andi r24,lo8(63)
 4587 1584 8A5F      		subi r24,lo8(-(6))
 4588 1586 8B83      		std Y+3,r24
 4589               	.LBB27:
 4590               		.stabn	68,0,1035,.LM480-.LFBB40
 4591               	.LM480:
 4592 1588 8FE5      		ldi r24,lo8(95)
 4593 158a 90E0      		ldi r25,0
 4594 158c FC01      		movw r30,r24
 4595 158e 8081      		ld r24,Z
 4596 1590 8C83      		std Y+4,r24
 4597 1592 0E94 0000 		call __iCliRetVal
 4598 1596 8A83      		std Y+2,r24
 4599 1598 00C0      		rjmp .L158
 4600               	.L159:
 4601               		.stabn	68,0,1036,.LM481-.LFBB40
 4602               	.LM481:
 4603 159a 80E0      		ldi r24,lo8(g_sboxnet+267)
 4604 159c 90E0      		ldi r25,hi8(g_sboxnet+267)
 4605 159e 0E94 0000 		call sboxnet_rb_getfree
 4606 15a2 8983      		std Y+1,r24
 4607               		.stabn	68,0,1035,.LM482-.LFBB40
 4608               	.LM482:
 4609 15a4 1A82      		std Y+2,__zero_reg__
 4610               	.L158:
 4611               		.stabn	68,0,1035,.LM483-.LFBB40
 4612               	.LM483:
 4613 15a6 8A81      		ldd r24,Y+2
 4614 15a8 8823      		tst r24
 4615 15aa 01F4      		brne .L159
 4616               		.stabn	68,0,1035,.LM484-.LFBB40
 4617               	.LM484:
GAS LISTING sboxnet2usb.s 			page 82


 4618 15ac CE01      		movw r24,r28
 4619 15ae 0496      		adiw r24,4
 4620 15b0 0E94 0000 		call __iRestore
 4621               	.LBE27:
 4622               		.stabn	68,0,1038,.LM485-.LFBB40
 4623               	.LM485:
 4624 15b4 81E0      		ldi r24,lo8(1)
 4625 15b6 2981      		ldd r18,Y+1
 4626 15b8 9B81      		ldd r25,Y+3
 4627 15ba 9217      		cp r25,r18
 4628 15bc 00F0      		brlo .L160
 4629 15be 80E0      		ldi r24,0
 4630               	.L160:
 4631               	/* epilogue start */
 4632               		.stabn	68,0,1039,.LM486-.LFBB40
 4633               	.LM486:
 4634 15c0 2696      		adiw r28,6
 4635 15c2 0FB6      		in __tmp_reg__,__SREG__
 4636 15c4 F894      		cli
 4637 15c6 DEBF      		out __SP_H__,r29
 4638 15c8 0FBE      		out __SREG__,__tmp_reg__
 4639 15ca CDBF      		out __SP_L__,r28
 4640 15cc DF91      		pop r29
 4641 15ce CF91      		pop r28
 4642 15d0 0895      		ret
 4643               		.size	sboxnet_can_send_msg, .-sboxnet_can_send_msg
 4644               		.stabs	"msglen:(2,2)",128,0,1033,3
 4645               		.stabs	"free:(2,2)",128,0,1034,1
 4646               		.stabn	192,0,0,.LFBB40-.LFBB40
 4647               		.stabs	"sreg_save:(2,2)",128,0,1035,4
 4648               		.stabs	"__ToDo:(2,2)",128,0,1035,2
 4649               		.stabn	192,0,0,.LBB27-.LFBB40
 4650               		.stabn	224,0,0,.LBE27-.LFBB40
 4651               		.stabn	224,0,0,.Lscope40-.LFBB40
 4652               	.Lscope40:
 4653               		.stabs	"",36,0,0,.Lscope40-.LFBB40
 4654               		.stabd	78,0,0
 4655               		.stabs	"sboxnet_all_sent:f(2,2)",36,0,1040,sboxnet_all_sent
 4656               		.type	sboxnet_all_sent, @function
 4657               	sboxnet_all_sent:
 4658               		.stabd	46,0,0
 4659               		.stabn	68,0,1040,.LM487-.LFBB41
 4660               	.LM487:
 4661               	.LFBB41:
 4662 15d2 CF93      		push r28
 4663 15d4 DF93      		push r29
 4664 15d6 CDB7      		in r28,__SP_L__
 4665 15d8 DEB7      		in r29,__SP_H__
 4666               	/* prologue: function */
 4667               	/* frame size = 0 */
 4668               	/* stack size = 2 */
 4669               	.L__stack_usage = 2
 4670               		.stabn	68,0,1041,.LM488-.LFBB41
 4671               	.LM488:
 4672 15da 80E0      		ldi r24,lo8(g_sboxnet+267)
 4673 15dc 90E0      		ldi r25,hi8(g_sboxnet+267)
 4674 15de 0E94 0000 		call sboxnet_rb_getcount
GAS LISTING sboxnet2usb.s 			page 83


 4675 15e2 982F      		mov r25,r24
 4676 15e4 81E0      		ldi r24,lo8(1)
 4677 15e6 9923      		tst r25
 4678 15e8 01F0      		breq .L163
 4679 15ea 80E0      		ldi r24,0
 4680               	.L163:
 4681               	/* epilogue start */
 4682               		.stabn	68,0,1042,.LM489-.LFBB41
 4683               	.LM489:
 4684 15ec DF91      		pop r29
 4685 15ee CF91      		pop r28
 4686 15f0 0895      		ret
 4687               		.size	sboxnet_all_sent, .-sboxnet_all_sent
 4688               	.Lscope41:
 4689               		.stabs	"",36,0,0,.Lscope41-.LFBB41
 4690               		.stabd	78,0,0
 4691               		.stabs	"sboxnet_can_read:f(2,2)",36,0,1043,sboxnet_can_read
 4692               		.type	sboxnet_can_read, @function
 4693               	sboxnet_can_read:
 4694               		.stabd	46,0,0
 4695               		.stabn	68,0,1043,.LM490-.LFBB42
 4696               	.LM490:
 4697               	.LFBB42:
 4698 15f2 CF93      		push r28
 4699 15f4 DF93      		push r29
 4700 15f6 00D0      		rcall .
 4701 15f8 1F92      		push __zero_reg__
 4702 15fa CDB7      		in r28,__SP_L__
 4703 15fc DEB7      		in r29,__SP_H__
 4704               	/* prologue: function */
 4705               	/* frame size = 3 */
 4706               	/* stack size = 5 */
 4707               	.L__stack_usage = 5
 4708               	.LBB28:
 4709               		.stabn	68,0,1045,.LM491-.LFBB42
 4710               	.LM491:
 4711 15fe 8FE5      		ldi r24,lo8(95)
 4712 1600 90E0      		ldi r25,0
 4713 1602 FC01      		movw r30,r24
 4714 1604 8081      		ld r24,Z
 4715 1606 8B83      		std Y+3,r24
 4716 1608 0E94 0000 		call __iCliRetVal
 4717 160c 8A83      		std Y+2,r24
 4718 160e 00C0      		rjmp .L166
 4719               	.L167:
 4720               		.stabn	68,0,1046,.LM492-.LFBB42
 4721               	.LM492:
 4722 1610 80E0      		ldi r24,lo8(g_sboxnet+9)
 4723 1612 90E0      		ldi r25,hi8(g_sboxnet+9)
 4724 1614 0E94 0000 		call sboxnet_rb_can_read_bytes
 4725 1618 8983      		std Y+1,r24
 4726               		.stabn	68,0,1045,.LM493-.LFBB42
 4727               	.LM493:
 4728 161a 1A82      		std Y+2,__zero_reg__
 4729               	.L166:
 4730               		.stabn	68,0,1045,.LM494-.LFBB42
 4731               	.LM494:
GAS LISTING sboxnet2usb.s 			page 84


 4732 161c 8A81      		ldd r24,Y+2
 4733 161e 8823      		tst r24
 4734 1620 01F4      		brne .L167
 4735               		.stabn	68,0,1045,.LM495-.LFBB42
 4736               	.LM495:
 4737 1622 CE01      		movw r24,r28
 4738 1624 0396      		adiw r24,3
 4739 1626 0E94 0000 		call __iRestore
 4740               	.LBE28:
 4741               		.stabn	68,0,1048,.LM496-.LFBB42
 4742               	.LM496:
 4743 162a 81E0      		ldi r24,lo8(1)
 4744 162c 9981      		ldd r25,Y+1
 4745 162e 9630      		cpi r25,lo8(6)
 4746 1630 00F4      		brsh .L168
 4747 1632 80E0      		ldi r24,0
 4748               	.L168:
 4749               	/* epilogue start */
 4750               		.stabn	68,0,1049,.LM497-.LFBB42
 4751               	.LM497:
 4752 1634 0F90      		pop __tmp_reg__
 4753 1636 0F90      		pop __tmp_reg__
 4754 1638 0F90      		pop __tmp_reg__
 4755 163a DF91      		pop r29
 4756 163c CF91      		pop r28
 4757 163e 0895      		ret
 4758               		.size	sboxnet_can_read, .-sboxnet_can_read
 4759               		.stabs	"b:(2,2)",128,0,1044,1
 4760               		.stabn	192,0,0,.LFBB42-.LFBB42
 4761               		.stabs	"sreg_save:(2,2)",128,0,1045,3
 4762               		.stabs	"__ToDo:(2,2)",128,0,1045,2
 4763               		.stabn	192,0,0,.LBB28-.LFBB42
 4764               		.stabn	224,0,0,.LBE28-.LFBB42
 4765               		.stabn	224,0,0,.Lscope42-.LFBB42
 4766               	.Lscope42:
 4767               		.stabs	"",36,0,0,.Lscope42-.LFBB42
 4768               		.stabd	78,0,0
 4769               		.stabs	"sboxnet_can_send:f(2,2)",36,0,1050,sboxnet_can_send
 4770               		.type	sboxnet_can_send, @function
 4771               	sboxnet_can_send:
 4772               		.stabd	46,0,0
 4773               		.stabn	68,0,1050,.LM498-.LFBB43
 4774               	.LM498:
 4775               	.LFBB43:
 4776 1640 CF93      		push r28
 4777 1642 DF93      		push r29
 4778 1644 00D0      		rcall .
 4779 1646 1F92      		push __zero_reg__
 4780 1648 CDB7      		in r28,__SP_L__
 4781 164a DEB7      		in r29,__SP_H__
 4782               	/* prologue: function */
 4783               	/* frame size = 3 */
 4784               	/* stack size = 5 */
 4785               	.L__stack_usage = 5
 4786               	.LBB29:
 4787               		.stabn	68,0,1052,.LM499-.LFBB43
 4788               	.LM499:
GAS LISTING sboxnet2usb.s 			page 85


 4789 164c 8FE5      		ldi r24,lo8(95)
 4790 164e 90E0      		ldi r25,0
 4791 1650 FC01      		movw r30,r24
 4792 1652 8081      		ld r24,Z
 4793 1654 8B83      		std Y+3,r24
 4794 1656 0E94 0000 		call __iCliRetVal
 4795 165a 8A83      		std Y+2,r24
 4796 165c 00C0      		rjmp .L171
 4797               	.L172:
 4798               		.stabn	68,0,1053,.LM500-.LFBB43
 4799               	.LM500:
 4800 165e 80E0      		ldi r24,lo8(g_sboxnet+267)
 4801 1660 90E0      		ldi r25,hi8(g_sboxnet+267)
 4802 1662 0E94 0000 		call sboxnet_rb_getfree
 4803 1666 8983      		std Y+1,r24
 4804               		.stabn	68,0,1052,.LM501-.LFBB43
 4805               	.LM501:
 4806 1668 1A82      		std Y+2,__zero_reg__
 4807               	.L171:
 4808               		.stabn	68,0,1052,.LM502-.LFBB43
 4809               	.LM502:
 4810 166a 8A81      		ldd r24,Y+2
 4811 166c 8823      		tst r24
 4812 166e 01F4      		brne .L172
 4813               		.stabn	68,0,1052,.LM503-.LFBB43
 4814               	.LM503:
 4815 1670 CE01      		movw r24,r28
 4816 1672 0396      		adiw r24,3
 4817 1674 0E94 0000 		call __iRestore
 4818               	.LBE29:
 4819               		.stabn	68,0,1055,.LM504-.LFBB43
 4820               	.LM504:
 4821 1678 81E0      		ldi r24,lo8(1)
 4822 167a 9981      		ldd r25,Y+1
 4823 167c 9730      		cpi r25,lo8(7)
 4824 167e 00F4      		brsh .L173
 4825 1680 80E0      		ldi r24,0
 4826               	.L173:
 4827               	/* epilogue start */
 4828               		.stabn	68,0,1056,.LM505-.LFBB43
 4829               	.LM505:
 4830 1682 0F90      		pop __tmp_reg__
 4831 1684 0F90      		pop __tmp_reg__
 4832 1686 0F90      		pop __tmp_reg__
 4833 1688 DF91      		pop r29
 4834 168a CF91      		pop r28
 4835 168c 0895      		ret
 4836               		.size	sboxnet_can_send, .-sboxnet_can_send
 4837               		.stabs	"free:(2,2)",128,0,1051,1
 4838               		.stabn	192,0,0,.LFBB43-.LFBB43
 4839               		.stabs	"sreg_save:(2,2)",128,0,1052,3
 4840               		.stabs	"__ToDo:(2,2)",128,0,1052,2
 4841               		.stabn	192,0,0,.LBB29-.LFBB43
 4842               		.stabn	224,0,0,.LBE29-.LFBB43
 4843               		.stabn	224,0,0,.Lscope43-.LFBB43
 4844               	.Lscope43:
 4845               		.stabs	"",36,0,0,.Lscope43-.LFBB43
GAS LISTING sboxnet2usb.s 			page 86


 4846               		.stabd	78,0,0
 4847               		.stabs	"sboxnet_set_sniffer_mode:f(0,49)",36,0,1058,sboxnet_set_sniffer_mode
 4848               		.stabs	"on:p(2,2)",160,0,1058,1
 4849               		.type	sboxnet_set_sniffer_mode, @function
 4850               	sboxnet_set_sniffer_mode:
 4851               		.stabd	46,0,0
 4852               		.stabn	68,0,1058,.LM506-.LFBB44
 4853               	.LM506:
 4854               	.LFBB44:
 4855 168e CF93      		push r28
 4856 1690 DF93      		push r29
 4857 1692 1F92      		push __zero_reg__
 4858 1694 CDB7      		in r28,__SP_L__
 4859 1696 DEB7      		in r29,__SP_H__
 4860               	/* prologue: function */
 4861               	/* frame size = 1 */
 4862               	/* stack size = 3 */
 4863               	.L__stack_usage = 3
 4864 1698 8983      		std Y+1,r24
 4865               		.stabn	68,0,1059,.LM507-.LFBB44
 4866               	.LM507:
 4867 169a 8981      		ldd r24,Y+1
 4868 169c 8823      		tst r24
 4869 169e 01F0      		breq .L176
 4870               		.stabn	68,0,1060,.LM508-.LFBB44
 4871               	.LM508:
 4872 16a0 8091 0000 		lds r24,g_sboxnet+1
 4873 16a4 8160      		ori r24,lo8(1)
 4874 16a6 8093 0000 		sts g_sboxnet+1,r24
 4875               		.stabn	68,0,1064,.LM509-.LFBB44
 4876               	.LM509:
 4877 16aa 00C0      		rjmp .L178
 4878               	.L176:
 4879               		.stabn	68,0,1062,.LM510-.LFBB44
 4880               	.LM510:
 4881 16ac 8091 0000 		lds r24,g_sboxnet+1
 4882 16b0 8E7F      		andi r24,lo8(-2)
 4883 16b2 8093 0000 		sts g_sboxnet+1,r24
 4884               	.L178:
 4885               		.stabn	68,0,1064,.LM511-.LFBB44
 4886               	.LM511:
 4887 16b6 0000      		nop
 4888               	/* epilogue start */
 4889 16b8 0F90      		pop __tmp_reg__
 4890 16ba DF91      		pop r29
 4891 16bc CF91      		pop r28
 4892 16be 0895      		ret
 4893               		.size	sboxnet_set_sniffer_mode, .-sboxnet_set_sniffer_mode
 4894               	.Lscope44:
 4895               		.stabs	"",36,0,0,.Lscope44-.LFBB44
 4896               		.stabd	78,0,0
 4897               		.stabs	"__vector_16:F(0,49)",36,0,95,__vector_16
 4898               	.global	__vector_16
 4899               		.type	__vector_16, @function
 4900               	__vector_16:
 4901               		.stabd	46,0,0
 4902               		.stabs	"sboxnet2usb.c",132,0,0,.Ltext5
GAS LISTING sboxnet2usb.s 			page 87


 4903               	.Ltext5:
 4904               		.stabn	68,0,95,.LM512-.LFBB45
 4905               	.LM512:
 4906               	.LFBB45:
 4907 16c0 1F92      		push r1
 4908 16c2 0F92      		push r0
 4909 16c4 0090 5F00 		lds r0,95
 4910 16c8 0F92      		push r0
 4911 16ca 1124      		clr __zero_reg__
 4912 16cc 2F93      		push r18
 4913 16ce 3F93      		push r19
 4914 16d0 4F93      		push r20
 4915 16d2 5F93      		push r21
 4916 16d4 6F93      		push r22
 4917 16d6 7F93      		push r23
 4918 16d8 8F93      		push r24
 4919 16da 9F93      		push r25
 4920 16dc AF93      		push r26
 4921 16de BF93      		push r27
 4922 16e0 EF93      		push r30
 4923 16e2 FF93      		push r31
 4924 16e4 CF93      		push r28
 4925 16e6 DF93      		push r29
 4926 16e8 CDB7      		in r28,__SP_L__
 4927 16ea DEB7      		in r29,__SP_H__
 4928               	/* prologue: Signal */
 4929               	/* frame size = 0 */
 4930               	/* stack size = 17 */
 4931               	.L__stack_usage = 17
 4932               		.stabn	68,0,96,.LM513-.LFBB45
 4933               	.LM513:
 4934 16ec 0E94 0000 		call sboxnet_timer_bit
 4935               		.stabn	68,0,97,.LM514-.LFBB45
 4936               	.LM514:
 4937 16f0 0000      		nop
 4938               	/* epilogue start */
 4939 16f2 DF91      		pop r29
 4940 16f4 CF91      		pop r28
 4941 16f6 FF91      		pop r31
 4942 16f8 EF91      		pop r30
 4943 16fa BF91      		pop r27
 4944 16fc AF91      		pop r26
 4945 16fe 9F91      		pop r25
 4946 1700 8F91      		pop r24
 4947 1702 7F91      		pop r23
 4948 1704 6F91      		pop r22
 4949 1706 5F91      		pop r21
 4950 1708 4F91      		pop r20
 4951 170a 3F91      		pop r19
 4952 170c 2F91      		pop r18
 4953 170e 0F90      		pop r0
 4954 1710 0092 5F00 		sts 95,r0
 4955 1714 0F90      		pop r0
 4956 1716 1F90      		pop r1
 4957 1718 1895      		reti
 4958               		.size	__vector_16, .-__vector_16
 4959               	.Lscope45:
GAS LISTING sboxnet2usb.s 			page 88


 4960               		.stabs	"",36,0,0,.Lscope45-.LFBB45
 4961               		.stabd	78,0,0
 4962               	.global	g_sboxnet_flags
 4963               		.section .bss
 4964               		.type	g_sboxnet_flags, @object
 4965               		.size	g_sboxnet_flags, 1
 4966               	g_sboxnet_flags:
 4967 0000 00        		.zero	1
 4968               	.global	g_sboxnet_status
 4969               		.type	g_sboxnet_status, @object
 4970               		.size	g_sboxnet_status, 1
 4971               	g_sboxnet_status:
 4972 0001 00        		.zero	1
 4973               	.global	g_timer
 4974               		.type	g_timer, @object
 4975               		.size	g_timer, 1
 4976               	g_timer:
 4977 0002 00        		.zero	1
 4978               	.global	g_timer_led_msg_read
 4979               		.type	g_timer_led_msg_read, @object
 4980               		.size	g_timer_led_msg_read, 1
 4981               	g_timer_led_msg_read:
 4982 0003 00        		.zero	1
 4983               	.global	g_timer_led_msg_write
 4984               		.type	g_timer_led_msg_write, @object
 4985               		.size	g_timer_led_msg_write, 1
 4986               	g_timer_led_msg_write:
 4987 0004 00        		.zero	1
 4988               		.text
 4989               		.stabs	"trigger_led_msg_read:f(0,49)",36,0,140,trigger_led_msg_read
 4990               		.type	trigger_led_msg_read, @function
 4991               	trigger_led_msg_read:
 4992               		.stabd	46,0,0
 4993               		.stabn	68,0,140,.LM515-.LFBB46
 4994               	.LM515:
 4995               	.LFBB46:
 4996 171a CF93      		push r28
 4997 171c DF93      		push r29
 4998 171e 00D0      		rcall .
 4999 1720 CDB7      		in r28,__SP_L__
 5000 1722 DEB7      		in r29,__SP_H__
 5001               	/* prologue: function */
 5002               	/* frame size = 2 */
 5003               	/* stack size = 4 */
 5004               	.L__stack_usage = 4
 5005               	.LBB30:
 5006               		.stabn	68,0,141,.LM516-.LFBB46
 5007               	.LM516:
 5008 1724 8FE5      		ldi r24,lo8(95)
 5009 1726 90E0      		ldi r25,0
 5010 1728 FC01      		movw r30,r24
 5011 172a 8081      		ld r24,Z
 5012 172c 8A83      		std Y+2,r24
 5013 172e 0E94 0000 		call __iCliRetVal
 5014 1732 8983      		std Y+1,r24
 5015 1734 00C0      		rjmp .L181
 5016               	.L182:
GAS LISTING sboxnet2usb.s 			page 89


 5017               		.stabn	68,0,142,.LM517-.LFBB46
 5018               	.LM517:
 5019 1736 83E0      		ldi r24,lo8(3)
 5020 1738 8093 0000 		sts g_timer_led_msg_read,r24
 5021               		.stabn	68,0,143,.LM518-.LFBB46
 5022               	.LM518:
 5023 173c 85E2      		ldi r24,lo8(37)
 5024 173e 90E0      		ldi r25,0
 5025 1740 25E2      		ldi r18,lo8(37)
 5026 1742 30E0      		ldi r19,0
 5027 1744 F901      		movw r30,r18
 5028 1746 2081      		ld r18,Z
 5029 1748 2064      		ori r18,lo8(64)
 5030 174a FC01      		movw r30,r24
 5031 174c 2083      		st Z,r18
 5032               		.stabn	68,0,141,.LM519-.LFBB46
 5033               	.LM519:
 5034 174e 1982      		std Y+1,__zero_reg__
 5035               	.L181:
 5036               		.stabn	68,0,141,.LM520-.LFBB46
 5037               	.LM520:
 5038 1750 8981      		ldd r24,Y+1
 5039 1752 8823      		tst r24
 5040 1754 01F4      		brne .L182
 5041               		.stabn	68,0,141,.LM521-.LFBB46
 5042               	.LM521:
 5043 1756 CE01      		movw r24,r28
 5044 1758 0296      		adiw r24,2
 5045 175a 0E94 0000 		call __iRestore
 5046               	.LBE30:
 5047               		.stabn	68,0,145,.LM522-.LFBB46
 5048               	.LM522:
 5049 175e 0000      		nop
 5050               	/* epilogue start */
 5051 1760 0F90      		pop __tmp_reg__
 5052 1762 0F90      		pop __tmp_reg__
 5053 1764 DF91      		pop r29
 5054 1766 CF91      		pop r28
 5055 1768 0895      		ret
 5056               		.size	trigger_led_msg_read, .-trigger_led_msg_read
 5057               		.stabs	"sreg_save:(2,2)",128,0,141,2
 5058               		.stabs	"__ToDo:(2,2)",128,0,141,1
 5059               		.stabn	192,0,0,.LBB30-.LFBB46
 5060               		.stabn	224,0,0,.LBE30-.LFBB46
 5061               	.Lscope46:
 5062               		.stabs	"",36,0,0,.Lscope46-.LFBB46
 5063               		.stabd	78,0,0
 5064               		.stabs	"trigger_led_msg_write:f(0,49)",36,0,146,trigger_led_msg_write
 5065               		.type	trigger_led_msg_write, @function
 5066               	trigger_led_msg_write:
 5067               		.stabd	46,0,0
 5068               		.stabn	68,0,146,.LM523-.LFBB47
 5069               	.LM523:
 5070               	.LFBB47:
 5071 176a CF93      		push r28
 5072 176c DF93      		push r29
 5073 176e 00D0      		rcall .
GAS LISTING sboxnet2usb.s 			page 90


 5074 1770 CDB7      		in r28,__SP_L__
 5075 1772 DEB7      		in r29,__SP_H__
 5076               	/* prologue: function */
 5077               	/* frame size = 2 */
 5078               	/* stack size = 4 */
 5079               	.L__stack_usage = 4
 5080               	.LBB31:
 5081               		.stabn	68,0,147,.LM524-.LFBB47
 5082               	.LM524:
 5083 1774 8FE5      		ldi r24,lo8(95)
 5084 1776 90E0      		ldi r25,0
 5085 1778 FC01      		movw r30,r24
 5086 177a 8081      		ld r24,Z
 5087 177c 8A83      		std Y+2,r24
 5088 177e 0E94 0000 		call __iCliRetVal
 5089 1782 8983      		std Y+1,r24
 5090 1784 00C0      		rjmp .L184
 5091               	.L185:
 5092               		.stabn	68,0,148,.LM525-.LFBB47
 5093               	.LM525:
 5094 1786 83E0      		ldi r24,lo8(3)
 5095 1788 8093 0000 		sts g_timer_led_msg_write,r24
 5096               		.stabn	68,0,149,.LM526-.LFBB47
 5097               	.LM526:
 5098 178c 85E2      		ldi r24,lo8(37)
 5099 178e 90E0      		ldi r25,0
 5100 1790 25E2      		ldi r18,lo8(37)
 5101 1792 30E0      		ldi r19,0
 5102 1794 F901      		movw r30,r18
 5103 1796 2081      		ld r18,Z
 5104 1798 2068      		ori r18,lo8(-128)
 5105 179a FC01      		movw r30,r24
 5106 179c 2083      		st Z,r18
 5107               		.stabn	68,0,147,.LM527-.LFBB47
 5108               	.LM527:
 5109 179e 1982      		std Y+1,__zero_reg__
 5110               	.L184:
 5111               		.stabn	68,0,147,.LM528-.LFBB47
 5112               	.LM528:
 5113 17a0 8981      		ldd r24,Y+1
 5114 17a2 8823      		tst r24
 5115 17a4 01F4      		brne .L185
 5116               		.stabn	68,0,147,.LM529-.LFBB47
 5117               	.LM529:
 5118 17a6 CE01      		movw r24,r28
 5119 17a8 0296      		adiw r24,2
 5120 17aa 0E94 0000 		call __iRestore
 5121               	.LBE31:
 5122               		.stabn	68,0,151,.LM530-.LFBB47
 5123               	.LM530:
 5124 17ae 0000      		nop
 5125               	/* epilogue start */
 5126 17b0 0F90      		pop __tmp_reg__
 5127 17b2 0F90      		pop __tmp_reg__
 5128 17b4 DF91      		pop r29
 5129 17b6 CF91      		pop r28
 5130 17b8 0895      		ret
GAS LISTING sboxnet2usb.s 			page 91


 5131               		.size	trigger_led_msg_write, .-trigger_led_msg_write
 5132               		.stabs	"sreg_save:(2,2)",128,0,147,2
 5133               		.stabs	"__ToDo:(2,2)",128,0,147,1
 5134               		.stabn	192,0,0,.LBB31-.LFBB47
 5135               		.stabn	224,0,0,.LBE31-.LFBB47
 5136               	.Lscope47:
 5137               		.stabs	"",36,0,0,.Lscope47-.LFBB47
 5138               		.stabd	78,0,0
 5139               		.stabs	"stack_free:f(2,4)",36,0,160,stack_free
 5140               		.type	stack_free, @function
 5141               	stack_free:
 5142               		.stabd	46,0,0
 5143               		.stabn	68,0,160,.LM531-.LFBB48
 5144               	.LM531:
 5145               	.LFBB48:
 5146 17ba CF93      		push r28
 5147 17bc DF93      		push r29
 5148 17be 00D0      		rcall .
 5149 17c0 CDB7      		in r28,__SP_L__
 5150 17c2 DEB7      		in r29,__SP_H__
 5151               	/* prologue: function */
 5152               	/* frame size = 2 */
 5153               	/* stack size = 4 */
 5154               	.L__stack_usage = 4
 5155               		.stabn	68,0,161,.LM532-.LFBB48
 5156               	.LM532:
 5157 17c4 80E0      		ldi r24,lo8(_end)
 5158 17c6 90E0      		ldi r25,hi8(_end)
 5159 17c8 9A83      		std Y+2,r25
 5160 17ca 8983      		std Y+1,r24
 5161               		.stabn	68,0,162,.LM533-.LFBB48
 5162               	.LM533:
 5163 17cc 00C0      		rjmp .L187
 5164               	.L190:
 5165               		.stabn	68,0,163,.LM534-.LFBB48
 5166               	.LM534:
 5167 17ce 8981      		ldd r24,Y+1
 5168 17d0 9A81      		ldd r25,Y+2
 5169 17d2 FC01      		movw r30,r24
 5170 17d4 8081      		ld r24,Z
 5171 17d6 853A      		cpi r24,lo8(-91)
 5172 17d8 01F4      		brne .L192
 5173               		.stabn	68,0,166,.LM535-.LFBB48
 5174               	.LM535:
 5175 17da 8981      		ldd r24,Y+1
 5176 17dc 9A81      		ldd r25,Y+2
 5177 17de 0196      		adiw r24,1
 5178 17e0 9A83      		std Y+2,r25
 5179 17e2 8983      		std Y+1,r24
 5180               	.L187:
 5181               		.stabn	68,0,162,.LM536-.LFBB48
 5182               	.LM536:
 5183 17e4 8981      		ldd r24,Y+1
 5184 17e6 9A81      		ldd r25,Y+2
 5185 17e8 8050      		subi r24,lo8(__stack)
 5186 17ea 9040      		sbci r25,hi8(__stack)
 5187 17ec 00F0      		brlo .L190
GAS LISTING sboxnet2usb.s 			page 92


 5188 17ee 00C0      		rjmp .L189
 5189               	.L192:
 5190               		.stabn	68,0,164,.LM537-.LFBB48
 5191               	.LM537:
 5192 17f0 0000      		nop
 5193               	.L189:
 5194               		.stabn	68,0,168,.LM538-.LFBB48
 5195               	.LM538:
 5196 17f2 2981      		ldd r18,Y+1
 5197 17f4 3A81      		ldd r19,Y+2
 5198 17f6 80E0      		ldi r24,lo8(_end)
 5199 17f8 90E0      		ldi r25,hi8(_end)
 5200 17fa A901      		movw r20,r18
 5201 17fc 481B      		sub r20,r24
 5202 17fe 590B      		sbc r21,r25
 5203 1800 CA01      		movw r24,r20
 5204               	/* epilogue start */
 5205               		.stabn	68,0,169,.LM539-.LFBB48
 5206               	.LM539:
 5207 1802 0F90      		pop __tmp_reg__
 5208 1804 0F90      		pop __tmp_reg__
 5209 1806 DF91      		pop r29
 5210 1808 CF91      		pop r28
 5211 180a 0895      		ret
 5212               		.size	stack_free, .-stack_free
 5213               		.stabs	"p:(0,60)",128,0,161,1
 5214               		.stabn	192,0,0,.LFBB48-.LFBB48
 5215               		.stabn	224,0,0,.Lscope48-.LFBB48
 5216               	.Lscope48:
 5217               		.stabs	"",36,0,0,.Lscope48-.LFBB48
 5218               		.stabd	78,0,0
 5219               		.stabs	"stack_size:f(2,4)",36,0,171,stack_size
 5220               		.type	stack_size, @function
 5221               	stack_size:
 5222               		.stabd	46,0,0
 5223               		.stabn	68,0,171,.LM540-.LFBB49
 5224               	.LM540:
 5225               	.LFBB49:
 5226 180c CF93      		push r28
 5227 180e DF93      		push r29
 5228 1810 CDB7      		in r28,__SP_L__
 5229 1812 DEB7      		in r29,__SP_H__
 5230               	/* prologue: function */
 5231               	/* frame size = 0 */
 5232               	/* stack size = 2 */
 5233               	.L__stack_usage = 2
 5234               		.stabn	68,0,172,.LM541-.LFBB49
 5235               	.LM541:
 5236 1814 20E0      		ldi r18,lo8(__stack)
 5237 1816 30E0      		ldi r19,hi8(__stack)
 5238 1818 80E0      		ldi r24,lo8(_end)
 5239 181a 90E0      		ldi r25,hi8(_end)
 5240 181c A901      		movw r20,r18
 5241 181e 481B      		sub r20,r24
 5242 1820 590B      		sbc r21,r25
 5243 1822 CA01      		movw r24,r20
 5244               	/* epilogue start */
GAS LISTING sboxnet2usb.s 			page 93


 5245               		.stabn	68,0,173,.LM542-.LFBB49
 5246               	.LM542:
 5247 1824 DF91      		pop r29
 5248 1826 CF91      		pop r28
 5249 1828 0895      		ret
 5250               		.size	stack_size, .-stack_size
 5251               	.Lscope49:
 5252               		.stabs	"",36,0,0,.Lscope49-.LFBB49
 5253               		.stabd	78,0,0
 5254               		.section	.init8,"ax",@progbits
 5255               		.stabs	"stack_init8:F(0,49)",36,0,176,stack_init8
 5256               	.global	stack_init8
 5257               		.type	stack_init8, @function
 5258               	stack_init8:
 5259               		.stabd	46,0,0
 5260               		.stabn	68,0,176,.LM543-.LFBB50
 5261               	.LM543:
 5262               	.LFBB50:
 5263               	/* prologue: naked */
 5264               	/* frame size = 0 */
 5265               	/* stack size = 0 */
 5266               	.L__stack_usage = 0
 5267               		.stabn	68,0,177,.LM544-.LFBB50
 5268               	.LM544:
 5269 0000 00E0      		ldi r16,lo8(_end)
 5270 0002 10E0      		ldi r17,hi8(_end)
 5271               		.stabn	68,0,178,.LM545-.LFBB50
 5272               	.LM545:
 5273 0004 00C0      		rjmp .L196
 5274               	.L197:
 5275               		.stabn	68,0,179,.LM546-.LFBB50
 5276               	.LM546:
 5277 0006 C801      		movw r24,r16
 5278 0008 8C01      		movw r16,r24
 5279 000a 0F5F      		subi r16,-1
 5280 000c 1F4F      		sbci r17,-1
 5281 000e 25EA      		ldi r18,lo8(-91)
 5282 0010 FC01      		movw r30,r24
 5283 0012 2083      		st Z,r18
 5284               	.L196:
 5285               		.stabn	68,0,178,.LM547-.LFBB50
 5286               	.LM547:
 5287 0014 F0E0      		ldi r31,hi8(__stack)
 5288 0016 0030      		cpi r16,lo8(__stack)
 5289 0018 1F07      		cpc r17,r31
 5290 001a 00F0      		brlo .L197
 5291               		.stabn	68,0,181,.LM548-.LFBB50
 5292               	.LM548:
 5293 001c 0000      		nop
 5294               	/* epilogue start */
 5295               		.size	stack_init8, .-stack_init8
 5296               		.stabs	"p:r(0,60)",64,0,177,16
 5297               		.stabn	192,0,0,.LFBB50-.LFBB50
 5298               		.stabn	224,0,0,.Lscope50-.LFBB50
 5299               	.Lscope50:
 5300               		.stabs	"",36,0,0,.Lscope50-.LFBB50
 5301               		.stabd	78,0,0
GAS LISTING sboxnet2usb.s 			page 94


 5302               		.text
 5303               		.stabs	"usb_ep_isSETUP:f(2,2)",36,0,240,usb_ep_isSETUP
 5304               		.type	usb_ep_isSETUP, @function
 5305               	usb_ep_isSETUP:
 5306               		.stabd	46,0,0
 5307               		.stabs	"../avrutilslib/usb/usb.h",132,0,0,.Ltext6
 5308               	.Ltext6:
 5309               		.stabn	68,0,240,.LM549-.LFBB51
 5310               	.LM549:
 5311               	.LFBB51:
 5312 182a CF93      		push r28
 5313 182c DF93      		push r29
 5314 182e CDB7      		in r28,__SP_L__
 5315 1830 DEB7      		in r29,__SP_H__
 5316               	/* prologue: function */
 5317               	/* frame size = 0 */
 5318               	/* stack size = 2 */
 5319               	.L__stack_usage = 2
 5320               		.stabn	68,0,241,.LM550-.LFBB51
 5321               	.LM550:
 5322 1832 88EE      		ldi r24,lo8(-24)
 5323 1834 90E0      		ldi r25,0
 5324 1836 FC01      		movw r30,r24
 5325 1838 8081      		ld r24,Z
 5326 183a 8870      		andi r24,lo8(8)
 5327               	/* epilogue start */
 5328               		.stabn	68,0,242,.LM551-.LFBB51
 5329               	.LM551:
 5330 183c DF91      		pop r29
 5331 183e CF91      		pop r28
 5332 1840 0895      		ret
 5333               		.size	usb_ep_isSETUP, .-usb_ep_isSETUP
 5334               	.Lscope51:
 5335               		.stabs	"",36,0,0,.Lscope51-.LFBB51
 5336               		.stabd	78,0,0
 5337               		.stabs	"usb_ep_clearSETUP:f(0,49)",36,0,243,usb_ep_clearSETUP
 5338               		.type	usb_ep_clearSETUP, @function
 5339               	usb_ep_clearSETUP:
 5340               		.stabd	46,0,0
 5341               		.stabn	68,0,243,.LM552-.LFBB52
 5342               	.LM552:
 5343               	.LFBB52:
 5344 1842 CF93      		push r28
 5345 1844 DF93      		push r29
 5346 1846 CDB7      		in r28,__SP_L__
 5347 1848 DEB7      		in r29,__SP_H__
 5348               	/* prologue: function */
 5349               	/* frame size = 0 */
 5350               	/* stack size = 2 */
 5351               	.L__stack_usage = 2
 5352               		.stabn	68,0,244,.LM553-.LFBB52
 5353               	.LM553:
 5354 184a 88EE      		ldi r24,lo8(-24)
 5355 184c 90E0      		ldi r25,0
 5356 184e 28EE      		ldi r18,lo8(-24)
 5357 1850 30E0      		ldi r19,0
 5358 1852 F901      		movw r30,r18
GAS LISTING sboxnet2usb.s 			page 95


 5359 1854 2081      		ld r18,Z
 5360 1856 277F      		andi r18,lo8(-9)
 5361 1858 FC01      		movw r30,r24
 5362 185a 2083      		st Z,r18
 5363               		.stabn	68,0,245,.LM554-.LFBB52
 5364               	.LM554:
 5365 185c 0000      		nop
 5366               	/* epilogue start */
 5367 185e DF91      		pop r29
 5368 1860 CF91      		pop r28
 5369 1862 0895      		ret
 5370               		.size	usb_ep_clearSETUP, .-usb_ep_clearSETUP
 5371               	.Lscope52:
 5372               		.stabs	"",36,0,0,.Lscope52-.LFBB52
 5373               		.stabd	78,0,0
 5374               		.stabs	"usb_ep_isIN:F(2,2)",36,0,246,usb_ep_isIN
 5375               	.global	usb_ep_isIN
 5376               		.type	usb_ep_isIN, @function
 5377               	usb_ep_isIN:
 5378               		.stabd	46,0,0
 5379               		.stabn	68,0,246,.LM555-.LFBB53
 5380               	.LM555:
 5381               	.LFBB53:
 5382 1864 CF93      		push r28
 5383 1866 DF93      		push r29
 5384 1868 CDB7      		in r28,__SP_L__
 5385 186a DEB7      		in r29,__SP_H__
 5386               	/* prologue: function */
 5387               	/* frame size = 0 */
 5388               	/* stack size = 2 */
 5389               	.L__stack_usage = 2
 5390               		.stabn	68,0,247,.LM556-.LFBB53
 5391               	.LM556:
 5392 186c 88EE      		ldi r24,lo8(-24)
 5393 186e 90E0      		ldi r25,0
 5394 1870 FC01      		movw r30,r24
 5395 1872 8081      		ld r24,Z
 5396 1874 8170      		andi r24,lo8(1)
 5397               	/* epilogue start */
 5398               		.stabn	68,0,248,.LM557-.LFBB53
 5399               	.LM557:
 5400 1876 DF91      		pop r29
 5401 1878 CF91      		pop r28
 5402 187a 0895      		ret
 5403               		.size	usb_ep_isIN, .-usb_ep_isIN
 5404               	.Lscope53:
 5405               		.stabs	"",36,0,0,.Lscope53-.LFBB53
 5406               		.stabd	78,0,0
 5407               		.stabs	"usb_ep_clearIN:f(0,49)",36,0,249,usb_ep_clearIN
 5408               		.type	usb_ep_clearIN, @function
 5409               	usb_ep_clearIN:
 5410               		.stabd	46,0,0
 5411               		.stabn	68,0,249,.LM558-.LFBB54
 5412               	.LM558:
 5413               	.LFBB54:
 5414 187c CF93      		push r28
 5415 187e DF93      		push r29
GAS LISTING sboxnet2usb.s 			page 96


 5416 1880 CDB7      		in r28,__SP_L__
 5417 1882 DEB7      		in r29,__SP_H__
 5418               	/* prologue: function */
 5419               	/* frame size = 0 */
 5420               	/* stack size = 2 */
 5421               	.L__stack_usage = 2
 5422               		.stabn	68,0,250,.LM559-.LFBB54
 5423               	.LM559:
 5424 1884 88EE      		ldi r24,lo8(-24)
 5425 1886 90E0      		ldi r25,0
 5426 1888 28EE      		ldi r18,lo8(-24)
 5427 188a 30E0      		ldi r19,0
 5428 188c F901      		movw r30,r18
 5429 188e 2081      		ld r18,Z
 5430 1890 2E7F      		andi r18,lo8(-2)
 5431 1892 FC01      		movw r30,r24
 5432 1894 2083      		st Z,r18
 5433               		.stabn	68,0,251,.LM560-.LFBB54
 5434               	.LM560:
 5435 1896 0000      		nop
 5436               	/* epilogue start */
 5437 1898 DF91      		pop r29
 5438 189a CF91      		pop r28
 5439 189c 0895      		ret
 5440               		.size	usb_ep_clearIN, .-usb_ep_clearIN
 5441               	.Lscope54:
 5442               		.stabs	"",36,0,0,.Lscope54-.LFBB54
 5443               		.stabd	78,0,0
 5444               		.stabs	"usb_ep_clearFIFOCON:f(0,49)",36,0,252,usb_ep_clearFIFOCON
 5445               		.type	usb_ep_clearFIFOCON, @function
 5446               	usb_ep_clearFIFOCON:
 5447               		.stabd	46,0,0
 5448               		.stabn	68,0,252,.LM561-.LFBB55
 5449               	.LM561:
 5450               	.LFBB55:
 5451 189e CF93      		push r28
 5452 18a0 DF93      		push r29
 5453 18a2 CDB7      		in r28,__SP_L__
 5454 18a4 DEB7      		in r29,__SP_H__
 5455               	/* prologue: function */
 5456               	/* frame size = 0 */
 5457               	/* stack size = 2 */
 5458               	.L__stack_usage = 2
 5459               		.stabn	68,0,253,.LM562-.LFBB55
 5460               	.LM562:
 5461 18a6 88EE      		ldi r24,lo8(-24)
 5462 18a8 90E0      		ldi r25,0
 5463 18aa 28EE      		ldi r18,lo8(-24)
 5464 18ac 30E0      		ldi r19,0
 5465 18ae F901      		movw r30,r18
 5466 18b0 2081      		ld r18,Z
 5467 18b2 2F77      		andi r18,lo8(127)
 5468 18b4 FC01      		movw r30,r24
 5469 18b6 2083      		st Z,r18
 5470               		.stabn	68,0,254,.LM563-.LFBB55
 5471               	.LM563:
 5472 18b8 0000      		nop
GAS LISTING sboxnet2usb.s 			page 97


 5473               	/* epilogue start */
 5474 18ba DF91      		pop r29
 5475 18bc CF91      		pop r28
 5476 18be 0895      		ret
 5477               		.size	usb_ep_clearFIFOCON, .-usb_ep_clearFIFOCON
 5478               	.Lscope55:
 5479               		.stabs	"",36,0,0,.Lscope55-.LFBB55
 5480               		.stabd	78,0,0
 5481               		.stabs	"usb_ep_isOUT:f(2,2)",36,0,255,usb_ep_isOUT
 5482               		.type	usb_ep_isOUT, @function
 5483               	usb_ep_isOUT:
 5484               		.stabd	46,0,0
 5485               		.stabn	68,0,255,.LM564-.LFBB56
 5486               	.LM564:
 5487               	.LFBB56:
 5488 18c0 CF93      		push r28
 5489 18c2 DF93      		push r29
 5490 18c4 CDB7      		in r28,__SP_L__
 5491 18c6 DEB7      		in r29,__SP_H__
 5492               	/* prologue: function */
 5493               	/* frame size = 0 */
 5494               	/* stack size = 2 */
 5495               	.L__stack_usage = 2
 5496               		.stabn	68,0,256,.LM565-.LFBB56
 5497               	.LM565:
 5498 18c8 88EE      		ldi r24,lo8(-24)
 5499 18ca 90E0      		ldi r25,0
 5500 18cc FC01      		movw r30,r24
 5501 18ce 8081      		ld r24,Z
 5502 18d0 8470      		andi r24,lo8(4)
 5503               	/* epilogue start */
 5504               		.stabn	68,0,257,.LM566-.LFBB56
 5505               	.LM566:
 5506 18d2 DF91      		pop r29
 5507 18d4 CF91      		pop r28
 5508 18d6 0895      		ret
 5509               		.size	usb_ep_isOUT, .-usb_ep_isOUT
 5510               	.Lscope56:
 5511               		.stabs	"",36,0,0,.Lscope56-.LFBB56
 5512               		.stabd	78,0,0
 5513               		.stabs	"usb_ep_clearOUT:f(0,49)",36,0,258,usb_ep_clearOUT
 5514               		.type	usb_ep_clearOUT, @function
 5515               	usb_ep_clearOUT:
 5516               		.stabd	46,0,0
 5517               		.stabn	68,0,258,.LM567-.LFBB57
 5518               	.LM567:
 5519               	.LFBB57:
 5520 18d8 CF93      		push r28
 5521 18da DF93      		push r29
 5522 18dc CDB7      		in r28,__SP_L__
 5523 18de DEB7      		in r29,__SP_H__
 5524               	/* prologue: function */
 5525               	/* frame size = 0 */
 5526               	/* stack size = 2 */
 5527               	.L__stack_usage = 2
 5528               		.stabn	68,0,259,.LM568-.LFBB57
 5529               	.LM568:
GAS LISTING sboxnet2usb.s 			page 98


 5530 18e0 88EE      		ldi r24,lo8(-24)
 5531 18e2 90E0      		ldi r25,0
 5532 18e4 28EE      		ldi r18,lo8(-24)
 5533 18e6 30E0      		ldi r19,0
 5534 18e8 F901      		movw r30,r18
 5535 18ea 2081      		ld r18,Z
 5536 18ec 2B7F      		andi r18,lo8(-5)
 5537 18ee FC01      		movw r30,r24
 5538 18f0 2083      		st Z,r18
 5539               		.stabn	68,0,260,.LM569-.LFBB57
 5540               	.LM569:
 5541 18f2 0000      		nop
 5542               	/* epilogue start */
 5543 18f4 DF91      		pop r29
 5544 18f6 CF91      		pop r28
 5545 18f8 0895      		ret
 5546               		.size	usb_ep_clearOUT, .-usb_ep_clearOUT
 5547               	.Lscope57:
 5548               		.stabs	"",36,0,0,.Lscope57-.LFBB57
 5549               		.stabd	78,0,0
 5550               		.stabs	"usb_ep_set_stall:f(0,49)",36,0,261,usb_ep_set_stall
 5551               		.type	usb_ep_set_stall, @function
 5552               	usb_ep_set_stall:
 5553               		.stabd	46,0,0
 5554               		.stabn	68,0,261,.LM570-.LFBB58
 5555               	.LM570:
 5556               	.LFBB58:
 5557 18fa CF93      		push r28
 5558 18fc DF93      		push r29
 5559 18fe CDB7      		in r28,__SP_L__
 5560 1900 DEB7      		in r29,__SP_H__
 5561               	/* prologue: function */
 5562               	/* frame size = 0 */
 5563               	/* stack size = 2 */
 5564               	.L__stack_usage = 2
 5565               		.stabn	68,0,262,.LM571-.LFBB58
 5566               	.LM571:
 5567 1902 8BEE      		ldi r24,lo8(-21)
 5568 1904 90E0      		ldi r25,0
 5569 1906 2BEE      		ldi r18,lo8(-21)
 5570 1908 30E0      		ldi r19,0
 5571 190a F901      		movw r30,r18
 5572 190c 2081      		ld r18,Z
 5573 190e 2062      		ori r18,lo8(32)
 5574 1910 FC01      		movw r30,r24
 5575 1912 2083      		st Z,r18
 5576               		.stabn	68,0,263,.LM572-.LFBB58
 5577               	.LM572:
 5578 1914 0000      		nop
 5579               	/* epilogue start */
 5580 1916 DF91      		pop r29
 5581 1918 CF91      		pop r28
 5582 191a 0895      		ret
 5583               		.size	usb_ep_set_stall, .-usb_ep_set_stall
 5584               	.Lscope58:
 5585               		.stabs	"",36,0,0,.Lscope58-.LFBB58
 5586               		.stabd	78,0,0
GAS LISTING sboxnet2usb.s 			page 99


 5587               		.stabs	"usb_req_isOUT:f(2,2)",36,0,265,usb_req_isOUT
 5588               		.stabs	"ur:p(0,61)=*(16,8)",160,0,265,1
 5589               		.type	usb_req_isOUT, @function
 5590               	usb_req_isOUT:
 5591               		.stabd	46,0,0
 5592               		.stabn	68,0,265,.LM573-.LFBB59
 5593               	.LM573:
 5594               	.LFBB59:
 5595 191c CF93      		push r28
 5596 191e DF93      		push r29
 5597 1920 00D0      		rcall .
 5598 1922 CDB7      		in r28,__SP_L__
 5599 1924 DEB7      		in r29,__SP_H__
 5600               	/* prologue: function */
 5601               	/* frame size = 2 */
 5602               	/* stack size = 4 */
 5603               	.L__stack_usage = 4
 5604 1926 9A83      		std Y+2,r25
 5605 1928 8983      		std Y+1,r24
 5606               		.stabn	68,0,266,.LM574-.LFBB59
 5607               	.LM574:
 5608 192a 8981      		ldd r24,Y+1
 5609 192c 9A81      		ldd r25,Y+2
 5610 192e FC01      		movw r30,r24
 5611 1930 8081      		ld r24,Z
 5612 1932 8095      		com r24
 5613 1934 881F      		rol r24
 5614 1936 8827      		clr r24
 5615 1938 881F      		rol r24
 5616               	/* epilogue start */
 5617               		.stabn	68,0,267,.LM575-.LFBB59
 5618               	.LM575:
 5619 193a 0F90      		pop __tmp_reg__
 5620 193c 0F90      		pop __tmp_reg__
 5621 193e DF91      		pop r29
 5622 1940 CF91      		pop r28
 5623 1942 0895      		ret
 5624               		.size	usb_req_isOUT, .-usb_req_isOUT
 5625               	.Lscope59:
 5626               		.stabs	"",36,0,0,.Lscope59-.LFBB59
 5627               		.stabd	78,0,0
 5628               		.stabs	"usb_req_isIN:f(2,2)",36,0,268,usb_req_isIN
 5629               		.stabs	"ur:p(0,61)",160,0,268,1
 5630               		.type	usb_req_isIN, @function
 5631               	usb_req_isIN:
 5632               		.stabd	46,0,0
 5633               		.stabn	68,0,268,.LM576-.LFBB60
 5634               	.LM576:
 5635               	.LFBB60:
 5636 1944 CF93      		push r28
 5637 1946 DF93      		push r29
 5638 1948 00D0      		rcall .
 5639 194a CDB7      		in r28,__SP_L__
 5640 194c DEB7      		in r29,__SP_H__
 5641               	/* prologue: function */
 5642               	/* frame size = 2 */
 5643               	/* stack size = 4 */
GAS LISTING sboxnet2usb.s 			page 100


 5644               	.L__stack_usage = 4
 5645 194e 9A83      		std Y+2,r25
 5646 1950 8983      		std Y+1,r24
 5647               		.stabn	68,0,269,.LM577-.LFBB60
 5648               	.LM577:
 5649 1952 8981      		ldd r24,Y+1
 5650 1954 9A81      		ldd r25,Y+2
 5651 1956 FC01      		movw r30,r24
 5652 1958 8081      		ld r24,Z
 5653 195a 881F      		rol r24
 5654 195c 8827      		clr r24
 5655 195e 881F      		rol r24
 5656               	/* epilogue start */
 5657               		.stabn	68,0,270,.LM578-.LFBB60
 5658               	.LM578:
 5659 1960 0F90      		pop __tmp_reg__
 5660 1962 0F90      		pop __tmp_reg__
 5661 1964 DF91      		pop r29
 5662 1966 CF91      		pop r28
 5663 1968 0895      		ret
 5664               		.size	usb_req_isIN, .-usb_req_isIN
 5665               	.Lscope60:
 5666               		.stabs	"",36,0,0,.Lscope60-.LFBB60
 5667               		.stabd	78,0,0
 5668               		.comm	g_usb_dev,13,1
 5669               		.stabs	"__vector_11:F(0,49)",36,0,75,__vector_11
 5670               	.global	__vector_11
 5671               		.type	__vector_11, @function
 5672               	__vector_11:
 5673               		.stabd	46,0,0
 5674               		.stabs	"../avrutilslib/usb/usb.c",132,0,0,.Ltext7
 5675               	.Ltext7:
 5676               		.stabn	68,0,75,.LM579-.LFBB61
 5677               	.LM579:
 5678               	.LFBB61:
 5679 196a 1F92      		push r1
 5680 196c 0F92      		push r0
 5681 196e 0090 5F00 		lds r0,95
 5682 1972 0F92      		push r0
 5683 1974 1124      		clr __zero_reg__
 5684 1976 2F93      		push r18
 5685 1978 3F93      		push r19
 5686 197a 4F93      		push r20
 5687 197c 5F93      		push r21
 5688 197e 6F93      		push r22
 5689 1980 7F93      		push r23
 5690 1982 8F93      		push r24
 5691 1984 9F93      		push r25
 5692 1986 AF93      		push r26
 5693 1988 BF93      		push r27
 5694 198a EF93      		push r30
 5695 198c FF93      		push r31
 5696 198e CF93      		push r28
 5697 1990 DF93      		push r29
 5698 1992 00D0      		rcall .
 5699 1994 1F92      		push __zero_reg__
 5700 1996 CDB7      		in r28,__SP_L__
GAS LISTING sboxnet2usb.s 			page 101


 5701 1998 DEB7      		in r29,__SP_H__
 5702               	/* prologue: Signal */
 5703               	/* frame size = 3 */
 5704               	/* stack size = 20 */
 5705               	.L__stack_usage = 20
 5706               		.stabn	68,0,77,.LM580-.LFBB61
 5707               	.LM580:
 5708 199a 81EE      		ldi r24,lo8(-31)
 5709 199c 90E0      		ldi r25,0
 5710 199e FC01      		movw r30,r24
 5711 19a0 8081      		ld r24,Z
 5712               		.stabn	68,0,77,.LM581-.LFBB61
 5713               	.LM581:
 5714 19a2 8A83      		std Y+2,r24
 5715               		.stabn	68,0,78,.LM582-.LFBB61
 5716               	.LM582:
 5717 19a4 82EE      		ldi r24,lo8(-30)
 5718 19a6 90E0      		ldi r25,0
 5719 19a8 FC01      		movw r30,r24
 5720 19aa 8081      		ld r24,Z
 5721               		.stabn	68,0,78,.LM583-.LFBB61
 5722               	.LM583:
 5723 19ac 8B83      		std Y+3,r24
 5724               		.stabn	68,0,80,.LM584-.LFBB61
 5725               	.LM584:
 5726 19ae 89EE      		ldi r24,lo8(-23)
 5727 19b0 90E0      		ldi r25,0
 5728               		.stabn	68,0,80,.LM585-.LFBB61
 5729               	.LM585:
 5730 19b2 FC01      		movw r30,r24
 5731 19b4 8081      		ld r24,Z
 5732 19b6 8983      		std Y+1,r24
 5733               		.stabn	68,0,82,.LM586-.LFBB61
 5734               	.LM586:
 5735 19b8 CE01      		movw r24,r28
 5736 19ba 0296      		adiw r24,2
 5737 19bc FC01      		movw r30,r24
 5738 19be 8081      		ld r24,Z
 5739               		.stabn	68,0,85,.LM587-.LFBB61
 5740               	.LM587:
 5741 19c0 CE01      		movw r24,r28
 5742 19c2 0296      		adiw r24,2
 5743 19c4 FC01      		movw r30,r24
 5744 19c6 8081      		ld r24,Z
 5745               		.stabn	68,0,88,.LM588-.LFBB61
 5746               	.LM588:
 5747 19c8 CE01      		movw r24,r28
 5748 19ca 0296      		adiw r24,2
 5749 19cc FC01      		movw r30,r24
 5750 19ce 8081      		ld r24,Z
 5751               		.stabn	68,0,91,.LM589-.LFBB61
 5752               	.LM589:
 5753 19d0 CE01      		movw r24,r28
 5754 19d2 0296      		adiw r24,2
 5755 19d4 FC01      		movw r30,r24
 5756 19d6 8081      		ld r24,Z
 5757               		.stabn	68,0,91,.LM590-.LFBB61
GAS LISTING sboxnet2usb.s 			page 102


 5758               	.LM590:
 5759 19d8 882F      		mov r24,r24
 5760 19da 90E0      		ldi r25,0
 5761 19dc 8870      		andi r24,8
 5762 19de 9927      		clr r25
 5763               		.stabn	68,0,91,.LM591-.LFBB61
 5764               	.LM591:
 5765 19e0 892B      		or r24,r25
 5766 19e2 01F0      		breq .L214
 5767               		.stabn	68,0,93,.LM592-.LFBB61
 5768               	.LM592:
 5769 19e4 CE01      		movw r24,r28
 5770 19e6 0396      		adiw r24,3
 5771 19e8 FC01      		movw r30,r24
 5772 19ea 8081      		ld r24,Z
 5773               		.stabn	68,0,93,.LM593-.LFBB61
 5774               	.LM593:
 5775 19ec 882F      		mov r24,r24
 5776 19ee 90E0      		ldi r25,0
 5777 19f0 8870      		andi r24,8
 5778 19f2 9927      		clr r25
 5779               		.stabn	68,0,93,.LM594-.LFBB61
 5780               	.LM594:
 5781 19f4 892B      		or r24,r25
 5782 19f6 01F0      		breq .L215
 5783               		.stabn	68,0,94,.LM595-.LFBB61
 5784               	.LM595:
 5785 19f8 0E94 0000 		call usb_intr_endofreset
 5786               	.L215:
 5787               		.stabn	68,0,96,.LM596-.LFBB61
 5788               	.LM596:
 5789 19fc 81EE      		ldi r24,lo8(-31)
 5790 19fe 90E0      		ldi r25,0
 5791 1a00 21EE      		ldi r18,lo8(-31)
 5792 1a02 30E0      		ldi r19,0
 5793 1a04 F901      		movw r30,r18
 5794 1a06 2081      		ld r18,Z
 5795 1a08 277F      		andi r18,lo8(-9)
 5796 1a0a FC01      		movw r30,r24
 5797 1a0c 2083      		st Z,r18
 5798               	.L214:
 5799               		.stabn	68,0,98,.LM597-.LFBB61
 5800               	.LM597:
 5801 1a0e CE01      		movw r24,r28
 5802 1a10 0296      		adiw r24,2
 5803 1a12 FC01      		movw r30,r24
 5804 1a14 8081      		ld r24,Z
 5805               		.stabn	68,0,101,.LM598-.LFBB61
 5806               	.LM598:
 5807 1a16 CE01      		movw r24,r28
 5808 1a18 0296      		adiw r24,2
 5809 1a1a FC01      		movw r30,r24
 5810 1a1c 8081      		ld r24,Z
 5811               		.stabn	68,0,105,.LM599-.LFBB61
 5812               	.LM599:
 5813 1a1e 81EE      		ldi r24,lo8(-31)
 5814 1a20 90E0      		ldi r25,0
GAS LISTING sboxnet2usb.s 			page 103


 5815               		.stabn	68,0,105,.LM600-.LFBB61
 5816               	.LM600:
 5817 1a22 FC01      		movw r30,r24
 5818 1a24 1082      		st Z,__zero_reg__
 5819               		.stabn	68,0,106,.LM601-.LFBB61
 5820               	.LM601:
 5821 1a26 89EE      		ldi r24,lo8(-23)
 5822 1a28 90E0      		ldi r25,0
 5823               		.stabn	68,0,106,.LM602-.LFBB61
 5824               	.LM602:
 5825 1a2a 2981      		ldd r18,Y+1
 5826 1a2c FC01      		movw r30,r24
 5827 1a2e 2083      		st Z,r18
 5828               		.stabn	68,0,107,.LM603-.LFBB61
 5829               	.LM603:
 5830 1a30 0000      		nop
 5831               	/* epilogue start */
 5832 1a32 0F90      		pop __tmp_reg__
 5833 1a34 0F90      		pop __tmp_reg__
 5834 1a36 0F90      		pop __tmp_reg__
 5835 1a38 DF91      		pop r29
 5836 1a3a CF91      		pop r28
 5837 1a3c FF91      		pop r31
 5838 1a3e EF91      		pop r30
 5839 1a40 BF91      		pop r27
 5840 1a42 AF91      		pop r26
 5841 1a44 9F91      		pop r25
 5842 1a46 8F91      		pop r24
 5843 1a48 7F91      		pop r23
 5844 1a4a 6F91      		pop r22
 5845 1a4c 5F91      		pop r21
 5846 1a4e 4F91      		pop r20
 5847 1a50 3F91      		pop r19
 5848 1a52 2F91      		pop r18
 5849 1a54 0F90      		pop r0
 5850 1a56 0092 5F00 		sts 95,r0
 5851 1a5a 0F90      		pop r0
 5852 1a5c 1F90      		pop r1
 5853 1a5e 1895      		reti
 5854               		.size	__vector_11, .-__vector_11
 5855               		.stabs	"intf:(2,2)",128,0,77,2
 5856               		.stabs	"inte:(2,2)",128,0,78,3
 5857               		.stabs	"epnum_save:(2,2)",128,0,80,1
 5858               		.stabn	192,0,0,.LFBB61-.LFBB61
 5859               		.stabn	224,0,0,.Lscope61-.LFBB61
 5860               	.Lscope61:
 5861               		.stabs	"",36,0,0,.Lscope61-.LFBB61
 5862               		.stabd	78,0,0
 5863               		.stabs	"usb_ep_read_data:F(0,49)",36,0,110,usb_ep_read_data
 5864               		.stabs	"buf:p(0,62)=*(0,49)",160,0,110,1
 5865               		.stabs	"size:p(2,2)",160,0,110,3
 5866               	.global	usb_ep_read_data
 5867               		.type	usb_ep_read_data, @function
 5868               	usb_ep_read_data:
 5869               		.stabd	46,0,0
 5870               		.stabn	68,0,110,.LM604-.LFBB62
 5871               	.LM604:
GAS LISTING sboxnet2usb.s 			page 104


 5872               	.LFBB62:
 5873 1a60 CF93      		push r28
 5874 1a62 DF93      		push r29
 5875 1a64 00D0      		rcall .
 5876 1a66 1F92      		push __zero_reg__
 5877 1a68 CDB7      		in r28,__SP_L__
 5878 1a6a DEB7      		in r29,__SP_H__
 5879               	/* prologue: function */
 5880               	/* frame size = 3 */
 5881               	/* stack size = 5 */
 5882               	.L__stack_usage = 5
 5883 1a6c 9A83      		std Y+2,r25
 5884 1a6e 8983      		std Y+1,r24
 5885 1a70 6B83      		std Y+3,r22
 5886               		.stabn	68,0,111,.LM605-.LFBB62
 5887               	.LM605:
 5888 1a72 00C0      		rjmp .L217
 5889               	.L218:
 5890               		.stabn	68,0,112,.LM606-.LFBB62
 5891               	.LM606:
 5892 1a74 8981      		ldd r24,Y+1
 5893 1a76 9A81      		ldd r25,Y+2
 5894 1a78 9C01      		movw r18,r24
 5895 1a7a 2F5F      		subi r18,-1
 5896 1a7c 3F4F      		sbci r19,-1
 5897 1a7e 3A83      		std Y+2,r19
 5898 1a80 2983      		std Y+1,r18
 5899               		.stabn	68,0,112,.LM607-.LFBB62
 5900               	.LM607:
 5901 1a82 21EF      		ldi r18,lo8(-15)
 5902 1a84 30E0      		ldi r19,0
 5903 1a86 F901      		movw r30,r18
 5904 1a88 2081      		ld r18,Z
 5905               		.stabn	68,0,112,.LM608-.LFBB62
 5906               	.LM608:
 5907 1a8a FC01      		movw r30,r24
 5908 1a8c 2083      		st Z,r18
 5909               		.stabn	68,0,113,.LM609-.LFBB62
 5910               	.LM609:
 5911 1a8e 8B81      		ldd r24,Y+3
 5912 1a90 8150      		subi r24,lo8(-(-1))
 5913 1a92 8B83      		std Y+3,r24
 5914               	.L217:
 5915               		.stabn	68,0,111,.LM610-.LFBB62
 5916               	.LM610:
 5917 1a94 8B81      		ldd r24,Y+3
 5918 1a96 8823      		tst r24
 5919 1a98 01F4      		brne .L218
 5920               		.stabn	68,0,115,.LM611-.LFBB62
 5921               	.LM611:
 5922 1a9a 0000      		nop
 5923               	/* epilogue start */
 5924 1a9c 0F90      		pop __tmp_reg__
 5925 1a9e 0F90      		pop __tmp_reg__
 5926 1aa0 0F90      		pop __tmp_reg__
 5927 1aa2 DF91      		pop r29
 5928 1aa4 CF91      		pop r28
GAS LISTING sboxnet2usb.s 			page 105


 5929 1aa6 0895      		ret
 5930               		.size	usb_ep_read_data, .-usb_ep_read_data
 5931               	.Lscope62:
 5932               		.stabs	"",36,0,0,.Lscope62-.LFBB62
 5933               		.stabd	78,0,0
 5934               		.stabs	"usb_ep_waitIN:F(2,2)",36,0,117,usb_ep_waitIN
 5935               	.global	usb_ep_waitIN
 5936               		.type	usb_ep_waitIN, @function
 5937               	usb_ep_waitIN:
 5938               		.stabd	46,0,0
 5939               		.stabn	68,0,117,.LM612-.LFBB63
 5940               	.LM612:
 5941               	.LFBB63:
 5942 1aa8 CF93      		push r28
 5943 1aaa DF93      		push r29
 5944 1aac CDB7      		in r28,__SP_L__
 5945 1aae DEB7      		in r29,__SP_H__
 5946               	/* prologue: function */
 5947               	/* frame size = 0 */
 5948               	/* stack size = 2 */
 5949               	.L__stack_usage = 2
 5950               		.stabn	68,0,118,.LM613-.LFBB63
 5951               	.LM613:
 5952 1ab0 00C0      		rjmp .L220
 5953               	.L222:
 5954               		.stabn	68,0,119,.LM614-.LFBB63
 5955               	.LM614:
 5956 1ab2 8091 0000 		lds r24,g_usb_dev
 5957 1ab6 882F      		mov r24,r24
 5958 1ab8 90E0      		ldi r25,0
 5959 1aba 8C71      		andi r24,28
 5960 1abc 9927      		clr r25
 5961 1abe 892B      		or r24,r25
 5962 1ac0 01F4      		brne .L220
 5963               		.stabn	68,0,120,.LM615-.LFBB63
 5964               	.LM615:
 5965 1ac2 83E0      		ldi r24,lo8(3)
 5966 1ac4 00C0      		rjmp .L221
 5967               	.L220:
 5968               		.stabn	68,0,118,.LM616-.LFBB63
 5969               	.LM616:
 5970 1ac6 0E94 0000 		call usb_ep_isIN
 5971 1aca 8823      		tst r24
 5972 1acc 01F0      		breq .L222
 5973               		.stabn	68,0,123,.LM617-.LFBB63
 5974               	.LM617:
 5975 1ace 80E0      		ldi r24,0
 5976               	.L221:
 5977               	/* epilogue start */
 5978               		.stabn	68,0,124,.LM618-.LFBB63
 5979               	.LM618:
 5980 1ad0 DF91      		pop r29
 5981 1ad2 CF91      		pop r28
 5982 1ad4 0895      		ret
 5983               		.size	usb_ep_waitIN, .-usb_ep_waitIN
 5984               	.Lscope63:
 5985               		.stabs	"",36,0,0,.Lscope63-.LFBB63
GAS LISTING sboxnet2usb.s 			page 106


 5986               		.stabd	78,0,0
 5987               		.stabs	"usb_ep_send_zlp:F(2,2)",36,0,126,usb_ep_send_zlp
 5988               	.global	usb_ep_send_zlp
 5989               		.type	usb_ep_send_zlp, @function
 5990               	usb_ep_send_zlp:
 5991               		.stabd	46,0,0
 5992               		.stabn	68,0,126,.LM619-.LFBB64
 5993               	.LM619:
 5994               	.LFBB64:
 5995 1ad6 CF93      		push r28
 5996 1ad8 DF93      		push r29
 5997 1ada 1F92      		push __zero_reg__
 5998 1adc CDB7      		in r28,__SP_L__
 5999 1ade DEB7      		in r29,__SP_H__
 6000               	/* prologue: function */
 6001               	/* frame size = 1 */
 6002               	/* stack size = 3 */
 6003               	.L__stack_usage = 3
 6004               		.stabn	68,0,127,.LM620-.LFBB64
 6005               	.LM620:
 6006 1ae0 0E94 0000 		call usb_ep_waitIN
 6007 1ae4 8983      		std Y+1,r24
 6008               		.stabn	68,0,128,.LM621-.LFBB64
 6009               	.LM621:
 6010 1ae6 8981      		ldd r24,Y+1
 6011 1ae8 8823      		tst r24
 6012 1aea 01F4      		brne .L224
 6013               		.stabn	68,0,129,.LM622-.LFBB64
 6014               	.LM622:
 6015 1aec 0E94 0000 		call usb_ep_clearIN
 6016               		.stabn	68,0,130,.LM623-.LFBB64
 6017               	.LM623:
 6018 1af0 0E94 0000 		call usb_ep_waitIN
 6019 1af4 8983      		std Y+1,r24
 6020               	.L224:
 6021               		.stabn	68,0,132,.LM624-.LFBB64
 6022               	.LM624:
 6023 1af6 8981      		ldd r24,Y+1
 6024               	/* epilogue start */
 6025               		.stabn	68,0,133,.LM625-.LFBB64
 6026               	.LM625:
 6027 1af8 0F90      		pop __tmp_reg__
 6028 1afa DF91      		pop r29
 6029 1afc CF91      		pop r28
 6030 1afe 0895      		ret
 6031               		.size	usb_ep_send_zlp, .-usb_ep_send_zlp
 6032               		.stabs	"rc:(2,2)",128,0,127,1
 6033               		.stabn	192,0,0,.LFBB64-.LFBB64
 6034               		.stabn	224,0,0,.Lscope64-.LFBB64
 6035               	.Lscope64:
 6036               		.stabs	"",36,0,0,.Lscope64-.LFBB64
 6037               		.stabd	78,0,0
 6038               		.stabs	"usb_mem_read_byte:F(2,2)",36,0,136,usb_mem_read_byte
 6039               		.stabs	"psrc:p(16,16)",160,0,136,4
 6040               		.stabs	"srctype:p(2,2)",160,0,136,6
 6041               	.global	usb_mem_read_byte
 6042               		.type	usb_mem_read_byte, @function
GAS LISTING sboxnet2usb.s 			page 107


 6043               	usb_mem_read_byte:
 6044               		.stabd	46,0,0
 6045               		.stabn	68,0,136,.LM626-.LFBB65
 6046               	.LM626:
 6047               	.LFBB65:
 6048 1b00 CF93      		push r28
 6049 1b02 DF93      		push r29
 6050 1b04 00D0      		rcall .
 6051 1b06 00D0      		rcall .
 6052 1b08 00D0      		rcall .
 6053 1b0a CDB7      		in r28,__SP_L__
 6054 1b0c DEB7      		in r29,__SP_H__
 6055               	/* prologue: function */
 6056               	/* frame size = 6 */
 6057               	/* stack size = 8 */
 6058               	.L__stack_usage = 8
 6059 1b0e 9D83      		std Y+5,r25
 6060 1b10 8C83      		std Y+4,r24
 6061 1b12 6E83      		std Y+6,r22
 6062               		.stabn	68,0,137,.LM627-.LFBB65
 6063               	.LM627:
 6064 1b14 8E81      		ldd r24,Y+6
 6065 1b16 882F      		mov r24,r24
 6066 1b18 90E0      		ldi r25,0
 6067 1b1a 8130      		cpi r24,1
 6068 1b1c 9105      		cpc r25,__zero_reg__
 6069 1b1e 01F0      		breq .L228
 6070 1b20 0297      		sbiw r24,2
 6071 1b22 01F0      		breq .L229
 6072 1b24 00C0      		rjmp .L231
 6073               	.L228:
 6074               	.LBB32:
 6075               		.stabn	68,0,139,.LM628-.LFBB65
 6076               	.LM628:
 6077 1b26 8C81      		ldd r24,Y+4
 6078 1b28 9D81      		ldd r25,Y+5
 6079 1b2a 9A83      		std Y+2,r25
 6080 1b2c 8983      		std Y+1,r24
 6081               		.stabn	68,0,139,.LM629-.LFBB65
 6082               	.LM629:
 6083 1b2e 8981      		ldd r24,Y+1
 6084 1b30 9A81      		ldd r25,Y+2
 6085 1b32 FC01      		movw r30,r24
 6086               	/* #APP */
 6087               	 ;  139 "../avrutilslib/usb/usb.c" 1
 6088 1b34 8491      		lpm r24, Z
 6089               		
 6090               	 ;  0 "" 2
 6091               	/* #NOAPP */
 6092 1b36 8B83      		std Y+3,r24
 6093 1b38 8B81      		ldd r24,Y+3
 6094               	.LBE32:
 6095               		.stabn	68,0,139,.LM630-.LFBB65
 6096               	.LM630:
 6097 1b3a 00C0      		rjmp .L230
 6098               	.L229:
 6099               		.stabn	68,0,142,.LM631-.LFBB65
GAS LISTING sboxnet2usb.s 			page 108


 6100               	.LM631:
 6101 1b3c 8C81      		ldd r24,Y+4
 6102 1b3e 9D81      		ldd r25,Y+5
 6103 1b40 0E94 0000 		call eeprom_read_byte
 6104 1b44 00C0      		rjmp .L230
 6105               	.L231:
 6106               		.stabn	68,0,146,.LM632-.LFBB65
 6107               	.LM632:
 6108 1b46 8C81      		ldd r24,Y+4
 6109 1b48 9D81      		ldd r25,Y+5
 6110 1b4a FC01      		movw r30,r24
 6111 1b4c 8081      		ld r24,Z
 6112               	.L230:
 6113               	/* epilogue start */
 6114               		.stabn	68,0,148,.LM633-.LFBB65
 6115               	.LM633:
 6116 1b4e 2696      		adiw r28,6
 6117 1b50 0FB6      		in __tmp_reg__,__SREG__
 6118 1b52 F894      		cli
 6119 1b54 DEBF      		out __SP_H__,r29
 6120 1b56 0FBE      		out __SREG__,__tmp_reg__
 6121 1b58 CDBF      		out __SP_L__,r28
 6122 1b5a DF91      		pop r29
 6123 1b5c CF91      		pop r28
 6124 1b5e 0895      		ret
 6125               		.size	usb_mem_read_byte, .-usb_mem_read_byte
 6126               		.stabs	"__addr16:(2,4)",128,0,139,1
 6127               		.stabs	"__result:(2,2)",128,0,139,3
 6128               		.stabn	192,0,0,.LBB32-.LFBB65
 6129               		.stabn	224,0,0,.LBE32-.LFBB65
 6130               	.Lscope65:
 6131               		.stabs	"",36,0,0,.Lscope65-.LFBB65
 6132               		.stabd	78,0,0
 6133               		.stabs	"usb_ep_getbufsize:F(2,2)",36,0,150,usb_ep_getbufsize
 6134               	.global	usb_ep_getbufsize
 6135               		.type	usb_ep_getbufsize, @function
 6136               	usb_ep_getbufsize:
 6137               		.stabd	46,0,0
 6138               		.stabn	68,0,150,.LM634-.LFBB66
 6139               	.LM634:
 6140               	.LFBB66:
 6141 1b60 CF93      		push r28
 6142 1b62 DF93      		push r29
 6143 1b64 00D0      		rcall .
 6144 1b66 1F92      		push __zero_reg__
 6145 1b68 CDB7      		in r28,__SP_L__
 6146 1b6a DEB7      		in r29,__SP_H__
 6147               	/* prologue: function */
 6148               	/* frame size = 3 */
 6149               	/* stack size = 5 */
 6150               	.L__stack_usage = 5
 6151               	.LBB33:
 6152               		.stabn	68,0,152,.LM635-.LFBB66
 6153               	.LM635:
 6154 1b6c 8DEE      		ldi r24,lo8(-19)
 6155 1b6e 90E0      		ldi r25,0
 6156 1b70 FC01      		movw r30,r24
GAS LISTING sboxnet2usb.s 			page 109


 6157 1b72 8081      		ld r24,Z
 6158               		.stabn	68,0,152,.LM636-.LFBB66
 6159               	.LM636:
 6160 1b74 8295      		swap r24
 6161 1b76 8F70      		andi r24,lo8(15)
 6162 1b78 882F      		mov r24,r24
 6163 1b7a 90E0      		ldi r25,0
 6164 1b7c 8370      		andi r24,3
 6165 1b7e 9927      		clr r25
 6166               		.stabn	68,0,152,.LM637-.LFBB66
 6167               	.LM637:
 6168 1b80 8050      		subi r24,lo8(-(epsizemap.2726))
 6169 1b82 9040      		sbci r25,hi8(-(epsizemap.2726))
 6170               		.stabn	68,0,152,.LM638-.LFBB66
 6171               	.LM638:
 6172 1b84 9A83      		std Y+2,r25
 6173 1b86 8983      		std Y+1,r24
 6174               		.stabn	68,0,152,.LM639-.LFBB66
 6175               	.LM639:
 6176 1b88 8981      		ldd r24,Y+1
 6177 1b8a 9A81      		ldd r25,Y+2
 6178 1b8c FC01      		movw r30,r24
 6179               	/* #APP */
 6180               	 ;  152 "../avrutilslib/usb/usb.c" 1
 6181 1b8e 8491      		lpm r24, Z
 6182               		
 6183               	 ;  0 "" 2
 6184               	/* #NOAPP */
 6185 1b90 8B83      		std Y+3,r24
 6186 1b92 8B81      		ldd r24,Y+3
 6187               	/* epilogue start */
 6188               	.LBE33:
 6189               		.stabn	68,0,153,.LM640-.LFBB66
 6190               	.LM640:
 6191 1b94 0F90      		pop __tmp_reg__
 6192 1b96 0F90      		pop __tmp_reg__
 6193 1b98 0F90      		pop __tmp_reg__
 6194 1b9a DF91      		pop r29
 6195 1b9c CF91      		pop r28
 6196 1b9e 0895      		ret
 6197               		.size	usb_ep_getbufsize, .-usb_ep_getbufsize
 6198               		.stabs	"epsizemap:V(0,63)=ar(13,4);0;3;(0,56)",38,0,151,epsizemap.2726
 6199               		.stabn	192,0,0,.LFBB66-.LFBB66
 6200               		.stabs	"__addr16:(2,4)",128,0,152,1
 6201               		.stabs	"__result:(2,2)",128,0,152,3
 6202               		.stabn	192,0,0,.LBB33-.LFBB66
 6203               		.stabn	224,0,0,.LBE33-.LFBB66
 6204               		.stabn	224,0,0,.Lscope66-.LFBB66
 6205               	.Lscope66:
 6206               		.stabs	"",36,0,0,.Lscope66-.LFBB66
 6207               		.stabd	78,0,0
 6208               		.stabs	"usb_ep_send_in_data:F(2,2)",36,0,157,usb_ep_send_in_data
 6209               		.stabs	"psrc:p(16,16)",160,0,157,2
 6210               		.stabs	"size:p(2,4)",160,0,157,4
 6211               		.stabs	"srctype:p(2,2)",160,0,157,6
 6212               	.global	usb_ep_send_in_data
 6213               		.type	usb_ep_send_in_data, @function
GAS LISTING sboxnet2usb.s 			page 110


 6214               	usb_ep_send_in_data:
 6215               		.stabd	46,0,0
 6216               		.stabn	68,0,157,.LM641-.LFBB67
 6217               	.LM641:
 6218               	.LFBB67:
 6219 1ba0 CF93      		push r28
 6220 1ba2 DF93      		push r29
 6221 1ba4 00D0      		rcall .
 6222 1ba6 00D0      		rcall .
 6223 1ba8 00D0      		rcall .
 6224 1baa CDB7      		in r28,__SP_L__
 6225 1bac DEB7      		in r29,__SP_H__
 6226               	/* prologue: function */
 6227               	/* frame size = 6 */
 6228               	/* stack size = 8 */
 6229               	.L__stack_usage = 8
 6230 1bae 9B83      		std Y+3,r25
 6231 1bb0 8A83      		std Y+2,r24
 6232 1bb2 7D83      		std Y+5,r23
 6233 1bb4 6C83      		std Y+4,r22
 6234 1bb6 4E83      		std Y+6,r20
 6235               	.L245:
 6236               		.stabn	68,0,165,.LM642-.LFBB67
 6237               	.LM642:
 6238 1bb8 8091 0000 		lds r24,g_usb_dev
 6239 1bbc 882F      		mov r24,r24
 6240 1bbe 90E0      		ldi r25,0
 6241 1bc0 8C71      		andi r24,28
 6242 1bc2 9927      		clr r25
 6243 1bc4 892B      		or r24,r25
 6244 1bc6 01F4      		brne .L235
 6245               		.stabn	68,0,166,.LM643-.LFBB67
 6246               	.LM643:
 6247 1bc8 83E0      		ldi r24,lo8(3)
 6248 1bca 00C0      		rjmp .L236
 6249               	.L235:
 6250               		.stabn	68,0,167,.LM644-.LFBB67
 6251               	.LM644:
 6252 1bcc 0E94 0000 		call usb_ep_isSETUP
 6253 1bd0 8823      		tst r24
 6254 1bd2 01F0      		breq .L237
 6255               		.stabn	68,0,169,.LM645-.LFBB67
 6256               	.LM645:
 6257 1bd4 81E0      		ldi r24,lo8(1)
 6258 1bd6 00C0      		rjmp .L236
 6259               	.L237:
 6260               		.stabn	68,0,170,.LM646-.LFBB67
 6261               	.LM646:
 6262 1bd8 0E94 0000 		call usb_ep_isOUT
 6263 1bdc 8823      		tst r24
 6264 1bde 01F0      		breq .L238
 6265               		.stabn	68,0,171,.LM647-.LFBB67
 6266               	.LM647:
 6267 1be0 0E94 0000 		call usb_ep_clearOUT
 6268               		.stabn	68,0,173,.LM648-.LFBB67
 6269               	.LM648:
 6270 1be4 82E0      		ldi r24,lo8(2)
GAS LISTING sboxnet2usb.s 			page 111


 6271 1be6 00C0      		rjmp .L236
 6272               	.L238:
 6273               		.stabn	68,0,174,.LM649-.LFBB67
 6274               	.LM649:
 6275 1be8 0E94 0000 		call usb_ep_isIN
 6276 1bec 8823      		tst r24
 6277 1bee 01F0      		breq .L247
 6278               		.stabn	68,0,179,.LM650-.LFBB67
 6279               	.LM650:
 6280 1bf0 00C0      		rjmp .L241
 6281               	.L243:
 6282               	.LBB34:
 6283               		.stabn	68,0,180,.LM651-.LFBB67
 6284               	.LM651:
 6285 1bf2 8A81      		ldd r24,Y+2
 6286 1bf4 9B81      		ldd r25,Y+3
 6287 1bf6 9C01      		movw r18,r24
 6288 1bf8 2F5F      		subi r18,-1
 6289 1bfa 3F4F      		sbci r19,-1
 6290 1bfc 3B83      		std Y+3,r19
 6291 1bfe 2A83      		std Y+2,r18
 6292 1c00 6E81      		ldd r22,Y+6
 6293 1c02 0E94 0000 		call usb_mem_read_byte
 6294 1c06 8983      		std Y+1,r24
 6295               		.stabn	68,0,181,.LM652-.LFBB67
 6296               	.LM652:
 6297 1c08 81EF      		ldi r24,lo8(-15)
 6298 1c0a 90E0      		ldi r25,0
 6299               		.stabn	68,0,181,.LM653-.LFBB67
 6300               	.LM653:
 6301 1c0c 2981      		ldd r18,Y+1
 6302 1c0e FC01      		movw r30,r24
 6303 1c10 2083      		st Z,r18
 6304               		.stabn	68,0,182,.LM654-.LFBB67
 6305               	.LM654:
 6306 1c12 8C81      		ldd r24,Y+4
 6307 1c14 9D81      		ldd r25,Y+5
 6308 1c16 0197      		sbiw r24,1
 6309 1c18 9D83      		std Y+5,r25
 6310 1c1a 8C83      		std Y+4,r24
 6311               	.L241:
 6312               	.LBE34:
 6313               		.stabn	68,0,179,.LM655-.LFBB67
 6314               	.LM655:
 6315 1c1c 8C81      		ldd r24,Y+4
 6316 1c1e 9D81      		ldd r25,Y+5
 6317 1c20 892B      		or r24,r25
 6318 1c22 01F0      		breq .L242
 6319               		.stabn	68,0,179,.LM656-.LFBB67
 6320               	.LM656:
 6321 1c24 88EE      		ldi r24,lo8(-24)
 6322 1c26 90E0      		ldi r25,0
 6323 1c28 FC01      		movw r30,r24
 6324 1c2a 8081      		ld r24,Z
 6325 1c2c 882F      		mov r24,r24
 6326 1c2e 90E0      		ldi r25,0
 6327 1c30 8072      		andi r24,32
GAS LISTING sboxnet2usb.s 			page 112


 6328 1c32 9927      		clr r25
 6329               		.stabn	68,0,179,.LM657-.LFBB67
 6330               	.LM657:
 6331 1c34 892B      		or r24,r25
 6332 1c36 01F4      		brne .L243
 6333               	.L242:
 6334               		.stabn	68,0,185,.LM658-.LFBB67
 6335               	.LM658:
 6336 1c38 0E94 0000 		call usb_ep_clearIN
 6337               		.stabn	68,0,186,.LM659-.LFBB67
 6338               	.LM659:
 6339 1c3c 0E94 0000 		call usb_ep_clearFIFOCON
 6340               		.stabn	68,0,188,.LM660-.LFBB67
 6341               	.LM660:
 6342 1c40 8C81      		ldd r24,Y+4
 6343 1c42 9D81      		ldd r25,Y+5
 6344 1c44 892B      		or r24,r25
 6345 1c46 01F0      		breq .L248
 6346 1c48 00C0      		rjmp .L245
 6347               	.L247:
 6348               		.stabn	68,0,176,.LM661-.LFBB67
 6349               	.LM661:
 6350 1c4a 0000      		nop
 6351               		.stabn	68,0,191,.LM662-.LFBB67
 6352               	.LM662:
 6353 1c4c 00C0      		rjmp .L245
 6354               	.L248:
 6355               		.stabn	68,0,189,.LM663-.LFBB67
 6356               	.LM663:
 6357 1c4e 0000      		nop
 6358               		.stabn	68,0,193,.LM664-.LFBB67
 6359               	.LM664:
 6360 1c50 80E0      		ldi r24,0
 6361               	.L236:
 6362               	/* epilogue start */
 6363               		.stabn	68,0,194,.LM665-.LFBB67
 6364               	.LM665:
 6365 1c52 2696      		adiw r28,6
 6366 1c54 0FB6      		in __tmp_reg__,__SREG__
 6367 1c56 F894      		cli
 6368 1c58 DEBF      		out __SP_H__,r29
 6369 1c5a 0FBE      		out __SREG__,__tmp_reg__
 6370 1c5c CDBF      		out __SP_L__,r28
 6371 1c5e DF91      		pop r29
 6372 1c60 CF91      		pop r28
 6373 1c62 0895      		ret
 6374               		.size	usb_ep_send_in_data, .-usb_ep_send_in_data
 6375               		.stabs	"d:(2,2)",128,0,180,1
 6376               		.stabn	192,0,0,.LBB34-.LFBB67
 6377               		.stabn	224,0,0,.LBE34-.LFBB67
 6378               	.Lscope67:
 6379               		.stabs	"",36,0,0,.Lscope67-.LFBB67
 6380               		.stabd	78,0,0
 6381               		.stabs	"usb_ep_send_control_data_chunk:F(2,2)",36,0,198,usb_ep_send_control_data_chunk
 6382               		.stabs	"psrc:p(16,16)",160,0,198,3
 6383               		.stabs	"size:p(2,4)",160,0,198,5
 6384               		.stabs	"srctype:p(2,2)",160,0,198,7
GAS LISTING sboxnet2usb.s 			page 113


 6385               	.global	usb_ep_send_control_data_chunk
 6386               		.type	usb_ep_send_control_data_chunk, @function
 6387               	usb_ep_send_control_data_chunk:
 6388               		.stabd	46,0,0
 6389               		.stabn	68,0,198,.LM666-.LFBB68
 6390               	.LM666:
 6391               	.LFBB68:
 6392 1c64 0F93      		push r16
 6393 1c66 1F93      		push r17
 6394 1c68 CF93      		push r28
 6395 1c6a DF93      		push r29
 6396 1c6c CDB7      		in r28,__SP_L__
 6397 1c6e DEB7      		in r29,__SP_H__
 6398 1c70 2797      		sbiw r28,7
 6399 1c72 0FB6      		in __tmp_reg__,__SREG__
 6400 1c74 F894      		cli
 6401 1c76 DEBF      		out __SP_H__,r29
 6402 1c78 0FBE      		out __SREG__,__tmp_reg__
 6403 1c7a CDBF      		out __SP_L__,r28
 6404               	/* prologue: function */
 6405               	/* frame size = 7 */
 6406               	/* stack size = 11 */
 6407               	.L__stack_usage = 11
 6408 1c7c 9C83      		std Y+4,r25
 6409 1c7e 8B83      		std Y+3,r24
 6410 1c80 7E83      		std Y+6,r23
 6411 1c82 6D83      		std Y+5,r22
 6412 1c84 4F83      		std Y+7,r20
 6413               		.stabn	68,0,199,.LM667-.LFBB68
 6414               	.LM667:
 6415 1c86 0E94 0000 		call usb_ep_getbufsize
 6416 1c8a 8A83      		std Y+2,r24
 6417               	.L261:
 6418               	.LBB35:
 6419               		.stabn	68,0,208,.LM668-.LFBB68
 6420               	.LM668:
 6421 1c8c 8091 0000 		lds r24,g_usb_dev
 6422 1c90 882F      		mov r24,r24
 6423 1c92 90E0      		ldi r25,0
 6424 1c94 8C71      		andi r24,28
 6425 1c96 9927      		clr r25
 6426 1c98 892B      		or r24,r25
 6427 1c9a 01F4      		brne .L250
 6428               		.stabn	68,0,209,.LM669-.LFBB68
 6429               	.LM669:
 6430 1c9c 83E0      		ldi r24,lo8(3)
 6431 1c9e 00C0      		rjmp .L251
 6432               	.L250:
 6433               		.stabn	68,0,210,.LM670-.LFBB68
 6434               	.LM670:
 6435 1ca0 0E94 0000 		call usb_ep_isSETUP
 6436 1ca4 8823      		tst r24
 6437 1ca6 01F0      		breq .L252
 6438               		.stabn	68,0,212,.LM671-.LFBB68
 6439               	.LM671:
 6440 1ca8 81E0      		ldi r24,lo8(1)
 6441 1caa 00C0      		rjmp .L251
GAS LISTING sboxnet2usb.s 			page 114


 6442               	.L252:
 6443               		.stabn	68,0,213,.LM672-.LFBB68
 6444               	.LM672:
 6445 1cac 0E94 0000 		call usb_ep_isOUT
 6446 1cb0 8823      		tst r24
 6447 1cb2 01F0      		breq .L253
 6448               		.stabn	68,0,214,.LM673-.LFBB68
 6449               	.LM673:
 6450 1cb4 0E94 0000 		call usb_ep_clearOUT
 6451               		.stabn	68,0,216,.LM674-.LFBB68
 6452               	.LM674:
 6453 1cb8 82E0      		ldi r24,lo8(2)
 6454 1cba 00C0      		rjmp .L251
 6455               	.L253:
 6456               		.stabn	68,0,217,.LM675-.LFBB68
 6457               	.LM675:
 6458 1cbc 0E94 0000 		call usb_ep_isIN
 6459 1cc0 8823      		tst r24
 6460 1cc2 01F0      		breq .L263
 6461               		.stabn	68,0,222,.LM676-.LFBB68
 6462               	.LM676:
 6463 1cc4 82EF      		ldi r24,lo8(-14)
 6464 1cc6 90E0      		ldi r25,0
 6465               		.stabn	68,0,222,.LM677-.LFBB68
 6466               	.LM677:
 6467 1cc8 FC01      		movw r30,r24
 6468 1cca 8081      		ld r24,Z
 6469 1ccc 8983      		std Y+1,r24
 6470               		.stabn	68,0,223,.LM678-.LFBB68
 6471               	.LM678:
 6472 1cce 00C0      		rjmp .L256
 6473               	.L258:
 6474               		.stabn	68,0,224,.LM679-.LFBB68
 6475               	.LM679:
 6476 1cd0 01EF      		ldi r16,lo8(-15)
 6477 1cd2 10E0      		ldi r17,0
 6478               		.stabn	68,0,224,.LM680-.LFBB68
 6479               	.LM680:
 6480 1cd4 8B81      		ldd r24,Y+3
 6481 1cd6 9C81      		ldd r25,Y+4
 6482 1cd8 9C01      		movw r18,r24
 6483 1cda 2F5F      		subi r18,-1
 6484 1cdc 3F4F      		sbci r19,-1
 6485 1cde 3C83      		std Y+4,r19
 6486 1ce0 2B83      		std Y+3,r18
 6487 1ce2 6F81      		ldd r22,Y+7
 6488 1ce4 0E94 0000 		call usb_mem_read_byte
 6489 1ce8 F801      		movw r30,r16
 6490 1cea 8083      		st Z,r24
 6491               		.stabn	68,0,225,.LM681-.LFBB68
 6492               	.LM681:
 6493 1cec 8D81      		ldd r24,Y+5
 6494 1cee 9E81      		ldd r25,Y+6
 6495 1cf0 0197      		sbiw r24,1
 6496 1cf2 9E83      		std Y+6,r25
 6497 1cf4 8D83      		std Y+5,r24
 6498               		.stabn	68,0,226,.LM682-.LFBB68
GAS LISTING sboxnet2usb.s 			page 115


 6499               	.LM682:
 6500 1cf6 8981      		ldd r24,Y+1
 6501 1cf8 8F5F      		subi r24,lo8(-(1))
 6502 1cfa 8983      		std Y+1,r24
 6503               	.L256:
 6504               		.stabn	68,0,223,.LM683-.LFBB68
 6505               	.LM683:
 6506 1cfc 8D81      		ldd r24,Y+5
 6507 1cfe 9E81      		ldd r25,Y+6
 6508 1d00 892B      		or r24,r25
 6509 1d02 01F0      		breq .L257
 6510               		.stabn	68,0,223,.LM684-.LFBB68
 6511               	.LM684:
 6512 1d04 9981      		ldd r25,Y+1
 6513 1d06 8A81      		ldd r24,Y+2
 6514 1d08 9817      		cp r25,r24
 6515 1d0a 00F0      		brlo .L258
 6516               	.L257:
 6517               		.stabn	68,0,228,.LM685-.LFBB68
 6518               	.LM685:
 6519 1d0c 9981      		ldd r25,Y+1
 6520 1d0e 8A81      		ldd r24,Y+2
 6521 1d10 9817      		cp r25,r24
 6522 1d12 01F4      		brne .L259
 6523               		.stabn	68,0,230,.LM686-.LFBB68
 6524               	.LM686:
 6525 1d14 0E94 0000 		call usb_ep_clearIN
 6526               	.L259:
 6527               		.stabn	68,0,232,.LM687-.LFBB68
 6528               	.LM687:
 6529 1d18 8D81      		ldd r24,Y+5
 6530 1d1a 9E81      		ldd r25,Y+6
 6531 1d1c 892B      		or r24,r25
 6532 1d1e 01F0      		breq .L264
 6533 1d20 00C0      		rjmp .L261
 6534               	.L263:
 6535               		.stabn	68,0,219,.LM688-.LFBB68
 6536               	.LM688:
 6537 1d22 0000      		nop
 6538               	.LBE35:
 6539               		.stabn	68,0,235,.LM689-.LFBB68
 6540               	.LM689:
 6541 1d24 00C0      		rjmp .L261
 6542               	.L264:
 6543               	.LBB36:
 6544               		.stabn	68,0,233,.LM690-.LFBB68
 6545               	.LM690:
 6546 1d26 0000      		nop
 6547               	.LBE36:
 6548               		.stabn	68,0,236,.LM691-.LFBB68
 6549               	.LM691:
 6550 1d28 80E0      		ldi r24,0
 6551               	.L251:
 6552               	/* epilogue start */
 6553               		.stabn	68,0,237,.LM692-.LFBB68
 6554               	.LM692:
 6555 1d2a 2796      		adiw r28,7
GAS LISTING sboxnet2usb.s 			page 116


 6556 1d2c 0FB6      		in __tmp_reg__,__SREG__
 6557 1d2e F894      		cli
 6558 1d30 DEBF      		out __SP_H__,r29
 6559 1d32 0FBE      		out __SREG__,__tmp_reg__
 6560 1d34 CDBF      		out __SP_L__,r28
 6561 1d36 DF91      		pop r29
 6562 1d38 CF91      		pop r28
 6563 1d3a 1F91      		pop r17
 6564 1d3c 0F91      		pop r16
 6565 1d3e 0895      		ret
 6566               		.size	usb_ep_send_control_data_chunk, .-usb_ep_send_control_data_chunk
 6567               		.stabs	"epsize:(2,2)",128,0,199,2
 6568               		.stabn	192,0,0,.LFBB68-.LFBB68
 6569               		.stabs	"written:(2,2)",128,0,222,1
 6570               		.stabn	192,0,0,.LBB35-.LFBB68
 6571               		.stabn	224,0,0,.LBE35-.LFBB68
 6572               		.stabs	"written:(2,2)",128,0,222,1
 6573               		.stabn	192,0,0,.LBB36-.LFBB68
 6574               		.stabn	224,0,0,.LBE36-.LFBB68
 6575               		.stabn	224,0,0,.Lscope68-.LFBB68
 6576               	.Lscope68:
 6577               		.stabs	"",36,0,0,.Lscope68-.LFBB68
 6578               		.stabd	78,0,0
 6579               		.stabs	"usb_ep_send_control_data_finish:F(2,2)",36,0,239,usb_ep_send_control_data_finish
 6580               	.global	usb_ep_send_control_data_finish
 6581               		.type	usb_ep_send_control_data_finish, @function
 6582               	usb_ep_send_control_data_finish:
 6583               		.stabd	46,0,0
 6584               		.stabn	68,0,239,.LM693-.LFBB69
 6585               	.LM693:
 6586               	.LFBB69:
 6587 1d40 CF93      		push r28
 6588 1d42 DF93      		push r29
 6589 1d44 CDB7      		in r28,__SP_L__
 6590 1d46 DEB7      		in r29,__SP_H__
 6591               	/* prologue: function */
 6592               	/* frame size = 0 */
 6593               	/* stack size = 2 */
 6594               	.L__stack_usage = 2
 6595               	.L271:
 6596               		.stabn	68,0,241,.LM694-.LFBB69
 6597               	.LM694:
 6598 1d48 8091 0000 		lds r24,g_usb_dev
 6599 1d4c 882F      		mov r24,r24
 6600 1d4e 90E0      		ldi r25,0
 6601 1d50 8C71      		andi r24,28
 6602 1d52 9927      		clr r25
 6603 1d54 892B      		or r24,r25
 6604 1d56 01F4      		brne .L266
 6605               		.stabn	68,0,242,.LM695-.LFBB69
 6606               	.LM695:
 6607 1d58 83E0      		ldi r24,lo8(3)
 6608 1d5a 00C0      		rjmp .L267
 6609               	.L266:
 6610               		.stabn	68,0,243,.LM696-.LFBB69
 6611               	.LM696:
 6612 1d5c 0E94 0000 		call usb_ep_isSETUP
GAS LISTING sboxnet2usb.s 			page 117


 6613 1d60 8823      		tst r24
 6614 1d62 01F0      		breq .L268
 6615               		.stabn	68,0,245,.LM697-.LFBB69
 6616               	.LM697:
 6617 1d64 81E0      		ldi r24,lo8(1)
 6618 1d66 00C0      		rjmp .L267
 6619               	.L268:
 6620               		.stabn	68,0,246,.LM698-.LFBB69
 6621               	.LM698:
 6622 1d68 0E94 0000 		call usb_ep_isOUT
 6623 1d6c 8823      		tst r24
 6624 1d6e 01F0      		breq .L269
 6625               		.stabn	68,0,247,.LM699-.LFBB69
 6626               	.LM699:
 6627 1d70 0E94 0000 		call usb_ep_clearOUT
 6628               		.stabn	68,0,249,.LM700-.LFBB69
 6629               	.LM700:
 6630 1d74 82E0      		ldi r24,lo8(2)
 6631 1d76 00C0      		rjmp .L267
 6632               	.L269:
 6633               		.stabn	68,0,250,.LM701-.LFBB69
 6634               	.LM701:
 6635 1d78 0E94 0000 		call usb_ep_isIN
 6636 1d7c 8823      		tst r24
 6637 1d7e 01F4      		brne .L270
 6638               		.stabn	68,0,257,.LM702-.LFBB69
 6639               	.LM702:
 6640 1d80 00C0      		rjmp .L271
 6641               	.L270:
 6642               		.stabn	68,0,255,.LM703-.LFBB69
 6643               	.LM703:
 6644 1d82 0E94 0000 		call usb_ep_clearIN
 6645               		.stabn	68,0,256,.LM704-.LFBB69
 6646               	.LM704:
 6647 1d86 0000      		nop
 6648               		.stabn	68,0,259,.LM705-.LFBB69
 6649               	.LM705:
 6650 1d88 00C0      		rjmp .L272
 6651               	.L274:
 6652               		.stabn	68,0,260,.LM706-.LFBB69
 6653               	.LM706:
 6654 1d8a 8091 0000 		lds r24,g_usb_dev
 6655 1d8e 882F      		mov r24,r24
 6656 1d90 90E0      		ldi r25,0
 6657 1d92 8C71      		andi r24,28
 6658 1d94 9927      		clr r25
 6659 1d96 892B      		or r24,r25
 6660 1d98 01F4      		brne .L273
 6661               		.stabn	68,0,261,.LM707-.LFBB69
 6662               	.LM707:
 6663 1d9a 83E0      		ldi r24,lo8(3)
 6664 1d9c 00C0      		rjmp .L267
 6665               	.L273:
 6666               		.stabn	68,0,262,.LM708-.LFBB69
 6667               	.LM708:
 6668 1d9e 0E94 0000 		call usb_ep_isSETUP
 6669 1da2 8823      		tst r24
GAS LISTING sboxnet2usb.s 			page 118


 6670 1da4 01F0      		breq .L272
 6671               		.stabn	68,0,264,.LM709-.LFBB69
 6672               	.LM709:
 6673 1da6 81E0      		ldi r24,lo8(1)
 6674 1da8 00C0      		rjmp .L267
 6675               	.L272:
 6676               		.stabn	68,0,259,.LM710-.LFBB69
 6677               	.LM710:
 6678 1daa 0E94 0000 		call usb_ep_isOUT
 6679 1dae 8823      		tst r24
 6680 1db0 01F0      		breq .L274
 6681               		.stabn	68,0,267,.LM711-.LFBB69
 6682               	.LM711:
 6683 1db2 0E94 0000 		call usb_ep_clearOUT
 6684               		.stabn	68,0,269,.LM712-.LFBB69
 6685               	.LM712:
 6686 1db6 80E0      		ldi r24,0
 6687               	.L267:
 6688               	/* epilogue start */
 6689               		.stabn	68,0,270,.LM713-.LFBB69
 6690               	.LM713:
 6691 1db8 DF91      		pop r29
 6692 1dba CF91      		pop r28
 6693 1dbc 0895      		ret
 6694               		.size	usb_ep_send_control_data_finish, .-usb_ep_send_control_data_finish
 6695               	.Lscope69:
 6696               		.stabs	"",36,0,0,.Lscope69-.LFBB69
 6697               		.stabd	78,0,0
 6698               		.stabs	"usb_ep_send_control_data:F(2,2)",36,0,272,usb_ep_send_control_data
 6699               		.stabs	"psrc:p(16,16)",160,0,272,2
 6700               		.stabs	"size:p(2,4)",160,0,272,4
 6701               		.stabs	"srctype:p(2,2)",160,0,272,6
 6702               		.stabs	"reqsize:p(2,4)",160,0,272,7
 6703               	.global	usb_ep_send_control_data
 6704               		.type	usb_ep_send_control_data, @function
 6705               	usb_ep_send_control_data:
 6706               		.stabd	46,0,0
 6707               		.stabn	68,0,272,.LM714-.LFBB70
 6708               	.LM714:
 6709               	.LFBB70:
 6710 1dbe CF93      		push r28
 6711 1dc0 DF93      		push r29
 6712 1dc2 CDB7      		in r28,__SP_L__
 6713 1dc4 DEB7      		in r29,__SP_H__
 6714 1dc6 2897      		sbiw r28,8
 6715 1dc8 0FB6      		in __tmp_reg__,__SREG__
 6716 1dca F894      		cli
 6717 1dcc DEBF      		out __SP_H__,r29
 6718 1dce 0FBE      		out __SREG__,__tmp_reg__
 6719 1dd0 CDBF      		out __SP_L__,r28
 6720               	/* prologue: function */
 6721               	/* frame size = 8 */
 6722               	/* stack size = 10 */
 6723               	.L__stack_usage = 10
 6724 1dd2 9B83      		std Y+3,r25
 6725 1dd4 8A83      		std Y+2,r24
 6726 1dd6 7D83      		std Y+5,r23
GAS LISTING sboxnet2usb.s 			page 119


 6727 1dd8 6C83      		std Y+4,r22
 6728 1dda 4E83      		std Y+6,r20
 6729 1ddc 3887      		std Y+8,r19
 6730 1dde 2F83      		std Y+7,r18
 6731               		.stabn	68,0,273,.LM715-.LFBB70
 6732               	.LM715:
 6733 1de0 2C81      		ldd r18,Y+4
 6734 1de2 3D81      		ldd r19,Y+5
 6735 1de4 8F81      		ldd r24,Y+7
 6736 1de6 9885      		ldd r25,Y+8
 6737 1de8 2817      		cp r18,r24
 6738 1dea 3907      		cpc r19,r25
 6739 1dec 00F4      		brsh .L276
 6740 1dee C901      		movw r24,r18
 6741               	.L276:
 6742 1df0 2A81      		ldd r18,Y+2
 6743 1df2 3B81      		ldd r19,Y+3
 6744 1df4 4E81      		ldd r20,Y+6
 6745 1df6 BC01      		movw r22,r24
 6746 1df8 C901      		movw r24,r18
 6747 1dfa 0E94 0000 		call usb_ep_send_control_data_chunk
 6748 1dfe 8983      		std Y+1,r24
 6749               		.stabn	68,0,274,.LM716-.LFBB70
 6750               	.LM716:
 6751 1e00 8981      		ldd r24,Y+1
 6752 1e02 8823      		tst r24
 6753 1e04 01F4      		brne .L277
 6754               		.stabn	68,0,275,.LM717-.LFBB70
 6755               	.LM717:
 6756 1e06 0E94 0000 		call usb_ep_send_control_data_finish
 6757 1e0a 8983      		std Y+1,r24
 6758               	.L277:
 6759               		.stabn	68,0,277,.LM718-.LFBB70
 6760               	.LM718:
 6761 1e0c 8981      		ldd r24,Y+1
 6762               	/* epilogue start */
 6763               		.stabn	68,0,278,.LM719-.LFBB70
 6764               	.LM719:
 6765 1e0e 2896      		adiw r28,8
 6766 1e10 0FB6      		in __tmp_reg__,__SREG__
 6767 1e12 F894      		cli
 6768 1e14 DEBF      		out __SP_H__,r29
 6769 1e16 0FBE      		out __SREG__,__tmp_reg__
 6770 1e18 CDBF      		out __SP_L__,r28
 6771 1e1a DF91      		pop r29
 6772 1e1c CF91      		pop r28
 6773 1e1e 0895      		ret
 6774               		.size	usb_ep_send_control_data, .-usb_ep_send_control_data
 6775               		.stabs	"r:(2,2)",128,0,273,1
 6776               		.stabn	192,0,0,.LFBB70-.LFBB70
 6777               		.stabn	224,0,0,.Lscope70-.LFBB70
 6778               	.Lscope70:
 6779               		.stabs	"",36,0,0,.Lscope70-.LFBB70
 6780               		.stabd	78,0,0
 6781               		.stabs	"usb_ep_recv_control_data_chunk:F(2,2)",36,0,282,usb_ep_recv_control_data_chunk
 6782               		.stabs	"psrc:p(0,62)",160,0,282,3
 6783               		.stabs	"psize:p(0,64)=*(2,4)",160,0,282,5
GAS LISTING sboxnet2usb.s 			page 120


 6784               		.stabs	"size:p(2,4)",160,0,282,7
 6785               	.global	usb_ep_recv_control_data_chunk
 6786               		.type	usb_ep_recv_control_data_chunk, @function
 6787               	usb_ep_recv_control_data_chunk:
 6788               		.stabd	46,0,0
 6789               		.stabn	68,0,282,.LM720-.LFBB71
 6790               	.LM720:
 6791               	.LFBB71:
 6792 1e20 CF93      		push r28
 6793 1e22 DF93      		push r29
 6794 1e24 CDB7      		in r28,__SP_L__
 6795 1e26 DEB7      		in r29,__SP_H__
 6796 1e28 2897      		sbiw r28,8
 6797 1e2a 0FB6      		in __tmp_reg__,__SREG__
 6798 1e2c F894      		cli
 6799 1e2e DEBF      		out __SP_H__,r29
 6800 1e30 0FBE      		out __SREG__,__tmp_reg__
 6801 1e32 CDBF      		out __SP_L__,r28
 6802               	/* prologue: function */
 6803               	/* frame size = 8 */
 6804               	/* stack size = 10 */
 6805               	.L__stack_usage = 10
 6806 1e34 9C83      		std Y+4,r25
 6807 1e36 8B83      		std Y+3,r24
 6808 1e38 7E83      		std Y+6,r23
 6809 1e3a 6D83      		std Y+5,r22
 6810 1e3c 5887      		std Y+8,r21
 6811 1e3e 4F83      		std Y+7,r20
 6812               		.stabn	68,0,283,.LM721-.LFBB71
 6813               	.LM721:
 6814 1e40 1A82      		std Y+2,__zero_reg__
 6815 1e42 1982      		std Y+1,__zero_reg__
 6816               		.stabn	68,0,284,.LM722-.LFBB71
 6817               	.LM722:
 6818 1e44 8D81      		ldd r24,Y+5
 6819 1e46 9E81      		ldd r25,Y+6
 6820 1e48 FC01      		movw r30,r24
 6821 1e4a 1182      		std Z+1,__zero_reg__
 6822 1e4c 1082      		st Z,__zero_reg__
 6823               		.stabn	68,0,285,.LM723-.LFBB71
 6824               	.LM723:
 6825 1e4e 8F81      		ldd r24,Y+7
 6826 1e50 9885      		ldd r25,Y+8
 6827 1e52 892B      		or r24,r25
 6828 1e54 01F4      		brne .+2
 6829 1e56 00C0      		rjmp .L280
 6830               	.L290:
 6831               		.stabn	68,0,287,.LM724-.LFBB71
 6832               	.LM724:
 6833 1e58 8091 0000 		lds r24,g_usb_dev
 6834 1e5c 882F      		mov r24,r24
 6835 1e5e 90E0      		ldi r25,0
 6836 1e60 8C71      		andi r24,28
 6837 1e62 9927      		clr r25
 6838 1e64 892B      		or r24,r25
 6839 1e66 01F4      		brne .L281
 6840               		.stabn	68,0,288,.LM725-.LFBB71
GAS LISTING sboxnet2usb.s 			page 121


 6841               	.LM725:
 6842 1e68 83E0      		ldi r24,lo8(3)
 6843 1e6a 00C0      		rjmp .L282
 6844               	.L281:
 6845               		.stabn	68,0,289,.LM726-.LFBB71
 6846               	.LM726:
 6847 1e6c 0E94 0000 		call usb_ep_isSETUP
 6848 1e70 8823      		tst r24
 6849 1e72 01F0      		breq .L283
 6850               		.stabn	68,0,290,.LM727-.LFBB71
 6851               	.LM727:
 6852 1e74 81E0      		ldi r24,lo8(1)
 6853 1e76 00C0      		rjmp .L282
 6854               	.L283:
 6855               		.stabn	68,0,291,.LM728-.LFBB71
 6856               	.LM728:
 6857 1e78 0E94 0000 		call usb_ep_isOUT
 6858 1e7c 8823      		tst r24
 6859 1e7e 01F0      		breq .L291
 6860               		.stabn	68,0,295,.LM729-.LFBB71
 6861               	.LM729:
 6862 1e80 00C0      		rjmp .L286
 6863               	.L288:
 6864               		.stabn	68,0,296,.LM730-.LFBB71
 6865               	.LM730:
 6866 1e82 8B81      		ldd r24,Y+3
 6867 1e84 9C81      		ldd r25,Y+4
 6868 1e86 9C01      		movw r18,r24
 6869 1e88 2F5F      		subi r18,-1
 6870 1e8a 3F4F      		sbci r19,-1
 6871 1e8c 3C83      		std Y+4,r19
 6872 1e8e 2B83      		std Y+3,r18
 6873               		.stabn	68,0,296,.LM731-.LFBB71
 6874               	.LM731:
 6875 1e90 21EF      		ldi r18,lo8(-15)
 6876 1e92 30E0      		ldi r19,0
 6877 1e94 F901      		movw r30,r18
 6878 1e96 2081      		ld r18,Z
 6879               		.stabn	68,0,296,.LM732-.LFBB71
 6880               	.LM732:
 6881 1e98 FC01      		movw r30,r24
 6882 1e9a 2083      		st Z,r18
 6883               		.stabn	68,0,297,.LM733-.LFBB71
 6884               	.LM733:
 6885 1e9c 8981      		ldd r24,Y+1
 6886 1e9e 9A81      		ldd r25,Y+2
 6887 1ea0 0196      		adiw r24,1
 6888 1ea2 9A83      		std Y+2,r25
 6889 1ea4 8983      		std Y+1,r24
 6890               	.L286:
 6891               		.stabn	68,0,295,.LM734-.LFBB71
 6892               	.LM734:
 6893 1ea6 82EF      		ldi r24,lo8(-14)
 6894 1ea8 90E0      		ldi r25,0
 6895 1eaa FC01      		movw r30,r24
 6896 1eac 8081      		ld r24,Z
 6897               		.stabn	68,0,295,.LM735-.LFBB71
GAS LISTING sboxnet2usb.s 			page 122


 6898               	.LM735:
 6899 1eae 8823      		tst r24
 6900 1eb0 01F0      		breq .L287
 6901               		.stabn	68,0,295,.LM736-.LFBB71
 6902               	.LM736:
 6903 1eb2 2981      		ldd r18,Y+1
 6904 1eb4 3A81      		ldd r19,Y+2
 6905 1eb6 8F81      		ldd r24,Y+7
 6906 1eb8 9885      		ldd r25,Y+8
 6907 1eba 2817      		cp r18,r24
 6908 1ebc 3907      		cpc r19,r25
 6909 1ebe 00F0      		brlo .L288
 6910               	.L287:
 6911               		.stabn	68,0,299,.LM737-.LFBB71
 6912               	.LM737:
 6913 1ec0 82EF      		ldi r24,lo8(-14)
 6914 1ec2 90E0      		ldi r25,0
 6915 1ec4 FC01      		movw r30,r24
 6916 1ec6 8081      		ld r24,Z
 6917               		.stabn	68,0,299,.LM738-.LFBB71
 6918               	.LM738:
 6919 1ec8 8823      		tst r24
 6920 1eca 01F4      		brne .L289
 6921               		.stabn	68,0,300,.LM739-.LFBB71
 6922               	.LM739:
 6923 1ecc 0E94 0000 		call usb_ep_clearOUT
 6924               	.L289:
 6925               		.stabn	68,0,302,.LM740-.LFBB71
 6926               	.LM740:
 6927 1ed0 2981      		ldd r18,Y+1
 6928 1ed2 3A81      		ldd r19,Y+2
 6929 1ed4 8F81      		ldd r24,Y+7
 6930 1ed6 9885      		ldd r25,Y+8
 6931 1ed8 2817      		cp r18,r24
 6932 1eda 3907      		cpc r19,r25
 6933 1edc 00F4      		brsh .+2
 6934 1ede 00C0      		rjmp .L290
 6935               		.stabn	68,0,303,.LM741-.LFBB71
 6936               	.LM741:
 6937 1ee0 8D81      		ldd r24,Y+5
 6938 1ee2 9E81      		ldd r25,Y+6
 6939 1ee4 2981      		ldd r18,Y+1
 6940 1ee6 3A81      		ldd r19,Y+2
 6941 1ee8 FC01      		movw r30,r24
 6942 1eea 3183      		std Z+1,r19
 6943 1eec 2083      		st Z,r18
 6944               		.stabn	68,0,304,.LM742-.LFBB71
 6945               	.LM742:
 6946 1eee 00C0      		rjmp .L280
 6947               	.L291:
 6948               		.stabn	68,0,292,.LM743-.LFBB71
 6949               	.LM743:
 6950 1ef0 0000      		nop
 6951               		.stabn	68,0,306,.LM744-.LFBB71
 6952               	.LM744:
 6953 1ef2 00C0      		rjmp .L290
 6954               	.L280:
GAS LISTING sboxnet2usb.s 			page 123


 6955               		.stabn	68,0,308,.LM745-.LFBB71
 6956               	.LM745:
 6957 1ef4 80E0      		ldi r24,0
 6958               	.L282:
 6959               	/* epilogue start */
 6960               		.stabn	68,0,309,.LM746-.LFBB71
 6961               	.LM746:
 6962 1ef6 2896      		adiw r28,8
 6963 1ef8 0FB6      		in __tmp_reg__,__SREG__
 6964 1efa F894      		cli
 6965 1efc DEBF      		out __SP_H__,r29
 6966 1efe 0FBE      		out __SREG__,__tmp_reg__
 6967 1f00 CDBF      		out __SP_L__,r28
 6968 1f02 DF91      		pop r29
 6969 1f04 CF91      		pop r28
 6970 1f06 0895      		ret
 6971               		.size	usb_ep_recv_control_data_chunk, .-usb_ep_recv_control_data_chunk
 6972               		.stabs	"readb:(2,4)",128,0,283,1
 6973               		.stabn	192,0,0,.LFBB71-.LFBB71
 6974               		.stabn	224,0,0,.Lscope71-.LFBB71
 6975               	.Lscope71:
 6976               		.stabs	"",36,0,0,.Lscope71-.LFBB71
 6977               		.stabd	78,0,0
 6978               		.stabs	"usb_ep_recv_control_data_finish:F(2,2)",36,0,311,usb_ep_recv_control_data_finish
 6979               	.global	usb_ep_recv_control_data_finish
 6980               		.type	usb_ep_recv_control_data_finish, @function
 6981               	usb_ep_recv_control_data_finish:
 6982               		.stabd	46,0,0
 6983               		.stabn	68,0,311,.LM747-.LFBB72
 6984               	.LM747:
 6985               	.LFBB72:
 6986 1f08 CF93      		push r28
 6987 1f0a DF93      		push r29
 6988 1f0c CDB7      		in r28,__SP_L__
 6989 1f0e DEB7      		in r29,__SP_H__
 6990               	/* prologue: function */
 6991               	/* frame size = 0 */
 6992               	/* stack size = 2 */
 6993               	.L__stack_usage = 2
 6994               		.stabn	68,0,312,.LM748-.LFBB72
 6995               	.LM748:
 6996 1f10 0E94 0000 		call usb_ep_clearOUT
 6997               		.stabn	68,0,313,.LM749-.LFBB72
 6998               	.LM749:
 6999 1f14 0E94 0000 		call usb_ep_send_zlp
 7000               	/* epilogue start */
 7001               		.stabn	68,0,314,.LM750-.LFBB72
 7002               	.LM750:
 7003 1f18 DF91      		pop r29
 7004 1f1a CF91      		pop r28
 7005 1f1c 0895      		ret
 7006               		.size	usb_ep_recv_control_data_finish, .-usb_ep_recv_control_data_finish
 7007               	.Lscope72:
 7008               		.stabs	"",36,0,0,.Lscope72-.LFBB72
 7009               		.stabd	78,0,0
 7010               		.stabs	"usb_ep_recv_control_data:F(2,2)",36,0,316,usb_ep_recv_control_data
 7011               		.stabs	"psrc:p(0,62)",160,0,316,2
GAS LISTING sboxnet2usb.s 			page 124


 7012               		.stabs	"psize:p(0,64)",160,0,316,4
 7013               		.stabs	"reqsize:p(2,4)",160,0,316,6
 7014               	.global	usb_ep_recv_control_data
 7015               		.type	usb_ep_recv_control_data, @function
 7016               	usb_ep_recv_control_data:
 7017               		.stabd	46,0,0
 7018               		.stabn	68,0,316,.LM751-.LFBB73
 7019               	.LM751:
 7020               	.LFBB73:
 7021 1f1e CF93      		push r28
 7022 1f20 DF93      		push r29
 7023 1f22 CDB7      		in r28,__SP_L__
 7024 1f24 DEB7      		in r29,__SP_H__
 7025 1f26 2797      		sbiw r28,7
 7026 1f28 0FB6      		in __tmp_reg__,__SREG__
 7027 1f2a F894      		cli
 7028 1f2c DEBF      		out __SP_H__,r29
 7029 1f2e 0FBE      		out __SREG__,__tmp_reg__
 7030 1f30 CDBF      		out __SP_L__,r28
 7031               	/* prologue: function */
 7032               	/* frame size = 7 */
 7033               	/* stack size = 9 */
 7034               	.L__stack_usage = 9
 7035 1f32 9B83      		std Y+3,r25
 7036 1f34 8A83      		std Y+2,r24
 7037 1f36 7D83      		std Y+5,r23
 7038 1f38 6C83      		std Y+4,r22
 7039 1f3a 5F83      		std Y+7,r21
 7040 1f3c 4E83      		std Y+6,r20
 7041               		.stabn	68,0,317,.LM752-.LFBB73
 7042               	.LM752:
 7043 1f3e 4E81      		ldd r20,Y+6
 7044 1f40 5F81      		ldd r21,Y+7
 7045 1f42 2C81      		ldd r18,Y+4
 7046 1f44 3D81      		ldd r19,Y+5
 7047 1f46 8A81      		ldd r24,Y+2
 7048 1f48 9B81      		ldd r25,Y+3
 7049 1f4a B901      		movw r22,r18
 7050 1f4c 0E94 0000 		call usb_ep_recv_control_data_chunk
 7051 1f50 8983      		std Y+1,r24
 7052               		.stabn	68,0,318,.LM753-.LFBB73
 7053               	.LM753:
 7054 1f52 8981      		ldd r24,Y+1
 7055 1f54 8823      		tst r24
 7056 1f56 01F4      		brne .L295
 7057               		.stabn	68,0,319,.LM754-.LFBB73
 7058               	.LM754:
 7059 1f58 0E94 0000 		call usb_ep_recv_control_data_finish
 7060 1f5c 8983      		std Y+1,r24
 7061               	.L295:
 7062               		.stabn	68,0,321,.LM755-.LFBB73
 7063               	.LM755:
 7064 1f5e 8981      		ldd r24,Y+1
 7065               	/* epilogue start */
 7066               		.stabn	68,0,322,.LM756-.LFBB73
 7067               	.LM756:
 7068 1f60 2796      		adiw r28,7
GAS LISTING sboxnet2usb.s 			page 125


 7069 1f62 0FB6      		in __tmp_reg__,__SREG__
 7070 1f64 F894      		cli
 7071 1f66 DEBF      		out __SP_H__,r29
 7072 1f68 0FBE      		out __SREG__,__tmp_reg__
 7073 1f6a CDBF      		out __SP_L__,r28
 7074 1f6c DF91      		pop r29
 7075 1f6e CF91      		pop r28
 7076 1f70 0895      		ret
 7077               		.size	usb_ep_recv_control_data, .-usb_ep_recv_control_data
 7078               		.stabs	"r:(2,2)",128,0,317,1
 7079               		.stabn	192,0,0,.LFBB73-.LFBB73
 7080               		.stabn	224,0,0,.Lscope73-.LFBB73
 7081               	.Lscope73:
 7082               		.stabs	"",36,0,0,.Lscope73-.LFBB73
 7083               		.stabd	78,0,0
 7084               		.stabs	"usb_ep0_get_configuration:f(2,2)",36,0,326,usb_ep0_get_configuration
 7085               		.type	usb_ep0_get_configuration, @function
 7086               	usb_ep0_get_configuration:
 7087               		.stabd	46,0,0
 7088               		.stabn	68,0,326,.LM757-.LFBB74
 7089               	.LM757:
 7090               	.LFBB74:
 7091 1f72 CF93      		push r28
 7092 1f74 DF93      		push r29
 7093 1f76 00D0      		rcall .
 7094 1f78 CDB7      		in r28,__SP_L__
 7095 1f7a DEB7      		in r29,__SP_H__
 7096               	/* prologue: function */
 7097               	/* frame size = 2 */
 7098               	/* stack size = 4 */
 7099               	.L__stack_usage = 4
 7100               		.stabn	68,0,327,.LM758-.LFBB74
 7101               	.LM758:
 7102 1f7c 80E0      		ldi r24,lo8(g_usb_dev)
 7103 1f7e 90E0      		ldi r25,hi8(g_usb_dev)
 7104 1f80 9A83      		std Y+2,r25
 7105 1f82 8983      		std Y+1,r24
 7106               		.stabn	68,0,328,.LM759-.LFBB74
 7107               	.LM759:
 7108 1f84 8981      		ldd r24,Y+1
 7109 1f86 9A81      		ldd r25,Y+2
 7110 1f88 FC01      		movw r30,r24
 7111 1f8a 8081      		ld r24,Z
 7112 1f8c 882F      		mov r24,r24
 7113 1f8e 90E0      		ldi r25,0
 7114 1f90 8871      		andi r24,24
 7115 1f92 9927      		clr r25
 7116 1f94 892B      		or r24,r25
 7117 1f96 01F0      		breq .L298
 7118               		.stabn	68,0,329,.LM760-.LFBB74
 7119               	.LM760:
 7120 1f98 0E94 0000 		call usb_ep_clearSETUP
 7121               		.stabn	68,0,330,.LM761-.LFBB74
 7122               	.LM761:
 7123 1f9c 8981      		ldd r24,Y+1
 7124 1f9e 9A81      		ldd r25,Y+2
 7125 1fa0 0196      		adiw r24,1
GAS LISTING sboxnet2usb.s 			page 126


 7126 1fa2 21E0      		ldi r18,lo8(1)
 7127 1fa4 30E0      		ldi r19,0
 7128 1fa6 40E0      		ldi r20,0
 7129 1fa8 61E0      		ldi r22,lo8(1)
 7130 1faa 70E0      		ldi r23,0
 7131 1fac 0E94 0000 		call usb_ep_send_control_data
 7132               		.stabn	68,0,331,.LM762-.LFBB74
 7133               	.LM762:
 7134 1fb0 80E0      		ldi r24,0
 7135 1fb2 00C0      		rjmp .L299
 7136               	.L298:
 7137               		.stabn	68,0,333,.LM763-.LFBB74
 7138               	.LM763:
 7139 1fb4 81E0      		ldi r24,lo8(1)
 7140               	.L299:
 7141               	/* epilogue start */
 7142               		.stabn	68,0,334,.LM764-.LFBB74
 7143               	.LM764:
 7144 1fb6 0F90      		pop __tmp_reg__
 7145 1fb8 0F90      		pop __tmp_reg__
 7146 1fba DF91      		pop r29
 7147 1fbc CF91      		pop r28
 7148 1fbe 0895      		ret
 7149               		.size	usb_ep0_get_configuration, .-usb_ep0_get_configuration
 7150               		.stabs	"dev:(0,65)=*(16,12)",128,0,327,1
 7151               		.stabn	192,0,0,.LFBB74-.LFBB74
 7152               		.stabn	224,0,0,.Lscope74-.LFBB74
 7153               	.Lscope74:
 7154               		.stabs	"",36,0,0,.Lscope74-.LFBB74
 7155               		.stabd	78,0,0
 7156               		.stabs	"usb_ep0_get_descriptor:f(2,2)",36,0,336,usb_ep0_get_descriptor
 7157               		.stabs	"req:p(0,61)",160,0,336,11
 7158               		.type	usb_ep0_get_descriptor, @function
 7159               	usb_ep0_get_descriptor:
 7160               		.stabd	46,0,0
 7161               		.stabn	68,0,336,.LM765-.LFBB75
 7162               	.LM765:
 7163               	.LFBB75:
 7164 1fc0 FF92      		push r15
 7165 1fc2 0F93      		push r16
 7166 1fc4 1F93      		push r17
 7167 1fc6 CF93      		push r28
 7168 1fc8 DF93      		push r29
 7169 1fca CDB7      		in r28,__SP_L__
 7170 1fcc DEB7      		in r29,__SP_H__
 7171 1fce 2C97      		sbiw r28,12
 7172 1fd0 0FB6      		in __tmp_reg__,__SREG__
 7173 1fd2 F894      		cli
 7174 1fd4 DEBF      		out __SP_H__,r29
 7175 1fd6 0FBE      		out __SREG__,__tmp_reg__
 7176 1fd8 CDBF      		out __SP_L__,r28
 7177               	/* prologue: function */
 7178               	/* frame size = 12 */
 7179               	/* stack size = 17 */
 7180               	.L__stack_usage = 17
 7181 1fda 9C87      		std Y+12,r25
 7182 1fdc 8B87      		std Y+11,r24
GAS LISTING sboxnet2usb.s 			page 127


 7183               		.stabn	68,0,337,.LM766-.LFBB75
 7184               	.LM766:
 7185 1fde 80E0      		ldi r24,lo8(g_usb_dev)
 7186 1fe0 90E0      		ldi r25,hi8(g_usb_dev)
 7187 1fe2 9C83      		std Y+4,r25
 7188 1fe4 8B83      		std Y+3,r24
 7189               		.stabn	68,0,338,.LM767-.LFBB75
 7190               	.LM767:
 7191 1fe6 8B85      		ldd r24,Y+11
 7192 1fe8 9C85      		ldd r25,Y+12
 7193 1fea FC01      		movw r30,r24
 7194 1fec 8281      		ldd r24,Z+2
 7195 1fee 9381      		ldd r25,Z+3
 7196 1ff0 892F      		mov r24,r25
 7197 1ff2 9927      		clr r25
 7198 1ff4 8230      		cpi r24,2
 7199 1ff6 9105      		cpc r25,__zero_reg__
 7200 1ff8 01F0      		breq .L302
 7201 1ffa 8330      		cpi r24,3
 7202 1ffc 9105      		cpc r25,__zero_reg__
 7203 1ffe 01F0      		breq .L303
 7204 2000 0197      		sbiw r24,1
 7205 2002 01F0      		breq .L304
 7206               		.stabn	68,0,389,.LM768-.LFBB75
 7207               	.LM768:
 7208 2004 00C0      		rjmp .L307
 7209               	.L304:
 7210               		.stabn	68,0,341,.LM769-.LFBB75
 7211               	.LM769:
 7212 2006 0E94 0000 		call usb_ep_clearSETUP
 7213               		.stabn	68,0,342,.LM770-.LFBB75
 7214               	.LM770:
 7215 200a 8B85      		ldd r24,Y+11
 7216 200c 9C85      		ldd r25,Y+12
 7217 200e FC01      		movw r30,r24
 7218 2010 2681      		ldd r18,Z+6
 7219 2012 3781      		ldd r19,Z+7
 7220 2014 8B81      		ldd r24,Y+3
 7221 2016 9C81      		ldd r25,Y+4
 7222 2018 FC01      		movw r30,r24
 7223 201a 4485      		ldd r20,Z+12
 7224 201c 8B81      		ldd r24,Y+3
 7225 201e 9C81      		ldd r25,Y+4
 7226 2020 FC01      		movw r30,r24
 7227 2022 8281      		ldd r24,Z+2
 7228 2024 9381      		ldd r25,Z+3
 7229 2026 62E1      		ldi r22,lo8(18)
 7230 2028 70E0      		ldi r23,0
 7231 202a 0E94 0000 		call usb_ep_send_control_data
 7232               		.stabn	68,0,343,.LM771-.LFBB75
 7233               	.LM771:
 7234 202e 80E0      		ldi r24,0
 7235 2030 00C0      		rjmp .L305
 7236               	.L302:
 7237               	.LBB37:
 7238               		.stabn	68,0,348,.LM772-.LFBB75
 7239               	.LM772:
GAS LISTING sboxnet2usb.s 			page 128


 7240 2032 8B85      		ldd r24,Y+11
 7241 2034 9C85      		ldd r25,Y+12
 7242 2036 FC01      		movw r30,r24
 7243 2038 8281      		ldd r24,Z+2
 7244 203a 9381      		ldd r25,Z+3
 7245 203c 8D83      		std Y+5,r24
 7246               		.stabn	68,0,349,.LM773-.LFBB75
 7247               	.LM773:
 7248 203e 8D81      		ldd r24,Y+5
 7249 2040 8823      		tst r24
 7250 2042 01F0      		breq .+2
 7251 2044 00C0      		rjmp .L315
 7252               		.stabn	68,0,350,.LM774-.LFBB75
 7253               	.LM774:
 7254 2046 0E94 0000 		call usb_ep_clearSETUP
 7255               		.stabn	68,0,351,.LM775-.LFBB75
 7256               	.LM775:
 7257 204a 8B85      		ldd r24,Y+11
 7258 204c 9C85      		ldd r25,Y+12
 7259 204e FC01      		movw r30,r24
 7260 2050 2681      		ldd r18,Z+6
 7261 2052 3781      		ldd r19,Z+7
 7262 2054 8B81      		ldd r24,Y+3
 7263 2056 9C81      		ldd r25,Y+4
 7264 2058 FC01      		movw r30,r24
 7265 205a 4485      		ldd r20,Z+12
 7266 205c 8B81      		ldd r24,Y+3
 7267 205e 9C81      		ldd r25,Y+4
 7268 2060 FC01      		movw r30,r24
 7269 2062 8681      		ldd r24,Z+6
 7270 2064 682F      		mov r22,r24
 7271 2066 70E0      		ldi r23,0
 7272 2068 8B81      		ldd r24,Y+3
 7273 206a 9C81      		ldd r25,Y+4
 7274 206c FC01      		movw r30,r24
 7275 206e 8481      		ldd r24,Z+4
 7276 2070 9581      		ldd r25,Z+5
 7277 2072 0E94 0000 		call usb_ep_send_control_data
 7278               		.stabn	68,0,352,.LM776-.LFBB75
 7279               	.LM776:
 7280 2076 80E0      		ldi r24,0
 7281 2078 00C0      		rjmp .L305
 7282               	.L303:
 7283               	.LBE37:
 7284               	.LBB38:
 7285               		.stabn	68,0,359,.LM777-.LFBB75
 7286               	.LM777:
 7287 207a 8B85      		ldd r24,Y+11
 7288 207c 9C85      		ldd r25,Y+12
 7289 207e FC01      		movw r30,r24
 7290 2080 8281      		ldd r24,Z+2
 7291 2082 9381      		ldd r25,Z+3
 7292 2084 8E83      		std Y+6,r24
 7293               		.stabn	68,0,360,.LM778-.LFBB75
 7294               	.LM778:
 7295 2086 8B81      		ldd r24,Y+3
 7296 2088 9C81      		ldd r25,Y+4
GAS LISTING sboxnet2usb.s 			page 129


 7297 208a FC01      		movw r30,r24
 7298 208c 8285      		ldd r24,Z+10
 7299 208e 9385      		ldd r25,Z+11
 7300 2090 892B      		or r24,r25
 7301 2092 01F0      		breq .L308
 7302               		.stabn	68,0,360,.LM779-.LFBB75
 7303               	.LM779:
 7304 2094 8B81      		ldd r24,Y+3
 7305 2096 9C81      		ldd r25,Y+4
 7306 2098 FC01      		movw r30,r24
 7307 209a 2285      		ldd r18,Z+10
 7308 209c 3385      		ldd r19,Z+11
 7309 209e 8B85      		ldd r24,Y+11
 7310 20a0 9C85      		ldd r25,Y+12
 7311 20a2 6E81      		ldd r22,Y+6
 7312 20a4 F901      		movw r30,r18
 7313 20a6 0995      		icall
 7314 20a8 8823      		tst r24
 7315 20aa 01F4      		brne .L308
 7316               		.stabn	68,0,361,.LM780-.LFBB75
 7317               	.LM780:
 7318 20ac 80E0      		ldi r24,0
 7319 20ae 00C0      		rjmp .L305
 7320               	.L308:
 7321               		.stabn	68,0,363,.LM781-.LFBB75
 7322               	.LM781:
 7323 20b0 8B81      		ldd r24,Y+3
 7324 20b2 9C81      		ldd r25,Y+4
 7325 20b4 FC01      		movw r30,r24
 7326 20b6 9185      		ldd r25,Z+9
 7327 20b8 8E81      		ldd r24,Y+6
 7328 20ba 8917      		cp r24,r25
 7329 20bc 00F0      		brlo .+2
 7330 20be 00C0      		rjmp .L316
 7331               	.LBB39:
 7332               		.stabn	68,0,366,.LM782-.LFBB75
 7333               	.LM782:
 7334 20c0 8B81      		ldd r24,Y+3
 7335 20c2 9C81      		ldd r25,Y+4
 7336 20c4 FC01      		movw r30,r24
 7337 20c6 8485      		ldd r24,Z+12
 7338 20c8 882F      		mov r24,r24
 7339 20ca 90E0      		ldi r25,0
 7340 20cc 8130      		cpi r24,1
 7341 20ce 9105      		cpc r25,__zero_reg__
 7342 20d0 01F0      		breq .L311
 7343 20d2 0297      		sbiw r24,2
 7344 20d4 01F0      		breq .L312
 7345 20d6 00C0      		rjmp .L314
 7346               	.L311:
 7347               	.LBB40:
 7348               		.stabn	68,0,368,.LM783-.LFBB75
 7349               	.LM783:
 7350 20d8 8B81      		ldd r24,Y+3
 7351 20da 9C81      		ldd r25,Y+4
 7352 20dc FC01      		movw r30,r24
 7353 20de 2781      		ldd r18,Z+7
GAS LISTING sboxnet2usb.s 			page 130


 7354 20e0 3085      		ldd r19,Z+8
 7355 20e2 8E81      		ldd r24,Y+6
 7356 20e4 882F      		mov r24,r24
 7357 20e6 90E0      		ldi r25,0
 7358 20e8 880F      		lsl r24
 7359 20ea 991F      		rol r25
 7360 20ec 820F      		add r24,r18
 7361 20ee 931F      		adc r25,r19
 7362               		.stabn	68,0,368,.LM784-.LFBB75
 7363               	.LM784:
 7364 20f0 9887      		std Y+8,r25
 7365 20f2 8F83      		std Y+7,r24
 7366               		.stabn	68,0,368,.LM785-.LFBB75
 7367               	.LM785:
 7368 20f4 8F81      		ldd r24,Y+7
 7369 20f6 9885      		ldd r25,Y+8
 7370 20f8 FC01      		movw r30,r24
 7371               	/* #APP */
 7372               	 ;  368 "../avrutilslib/usb/usb.c" 1
 7373 20fa 2591      		lpm r18, Z+
 7374 20fc 3491      		lpm r19, Z
 7375               		
 7376               	 ;  0 "" 2
 7377               	/* #NOAPP */
 7378 20fe CF01      		movw r24,r30
 7379 2100 3A87      		std Y+10,r19
 7380 2102 2987      		std Y+9,r18
 7381 2104 9887      		std Y+8,r25
 7382 2106 8F83      		std Y+7,r24
 7383 2108 8985      		ldd r24,Y+9
 7384 210a 9A85      		ldd r25,Y+10
 7385               	.LBE40:
 7386               		.stabn	68,0,368,.LM786-.LFBB75
 7387               	.LM786:
 7388 210c 9A83      		std Y+2,r25
 7389 210e 8983      		std Y+1,r24
 7390               		.stabn	68,0,369,.LM787-.LFBB75
 7391               	.LM787:
 7392 2110 00C0      		rjmp .L313
 7393               	.L312:
 7394               		.stabn	68,0,372,.LM788-.LFBB75
 7395               	.LM788:
 7396 2112 8B81      		ldd r24,Y+3
 7397 2114 9C81      		ldd r25,Y+4
 7398 2116 FC01      		movw r30,r24
 7399 2118 2781      		ldd r18,Z+7
 7400 211a 3085      		ldd r19,Z+8
 7401 211c 8E81      		ldd r24,Y+6
 7402 211e 882F      		mov r24,r24
 7403 2120 90E0      		ldi r25,0
 7404 2122 880F      		lsl r24
 7405 2124 991F      		rol r25
 7406 2126 820F      		add r24,r18
 7407 2128 931F      		adc r25,r19
 7408 212a 0E94 0000 		call eeprom_read_word
 7409 212e 9A83      		std Y+2,r25
 7410 2130 8983      		std Y+1,r24
GAS LISTING sboxnet2usb.s 			page 131


 7411               		.stabn	68,0,373,.LM789-.LFBB75
 7412               	.LM789:
 7413 2132 00C0      		rjmp .L313
 7414               	.L314:
 7415               		.stabn	68,0,376,.LM790-.LFBB75
 7416               	.LM790:
 7417 2134 8B81      		ldd r24,Y+3
 7418 2136 9C81      		ldd r25,Y+4
 7419 2138 FC01      		movw r30,r24
 7420 213a 2781      		ldd r18,Z+7
 7421 213c 3085      		ldd r19,Z+8
 7422 213e 8E81      		ldd r24,Y+6
 7423 2140 882F      		mov r24,r24
 7424 2142 90E0      		ldi r25,0
 7425 2144 880F      		lsl r24
 7426 2146 991F      		rol r25
 7427 2148 820F      		add r24,r18
 7428 214a 931F      		adc r25,r19
 7429 214c FC01      		movw r30,r24
 7430 214e 8081      		ld r24,Z
 7431 2150 9181      		ldd r25,Z+1
 7432 2152 9A83      		std Y+2,r25
 7433 2154 8983      		std Y+1,r24
 7434               		.stabn	68,0,377,.LM791-.LFBB75
 7435               	.LM791:
 7436 2156 0000      		nop
 7437               	.L313:
 7438               		.stabn	68,0,379,.LM792-.LFBB75
 7439               	.LM792:
 7440 2158 8981      		ldd r24,Y+1
 7441 215a 9A81      		ldd r25,Y+2
 7442 215c 892B      		or r24,r25
 7443 215e 01F0      		breq .L316
 7444               		.stabn	68,0,380,.LM793-.LFBB75
 7445               	.LM793:
 7446 2160 0E94 0000 		call usb_ep_clearSETUP
 7447               		.stabn	68,0,381,.LM794-.LFBB75
 7448               	.LM794:
 7449 2164 8B85      		ldd r24,Y+11
 7450 2166 9C85      		ldd r25,Y+12
 7451 2168 FC01      		movw r30,r24
 7452 216a 0681      		ldd r16,Z+6
 7453 216c 1781      		ldd r17,Z+7
 7454 216e 8B81      		ldd r24,Y+3
 7455 2170 9C81      		ldd r25,Y+4
 7456 2172 FC01      		movw r30,r24
 7457 2174 F484      		ldd r15,Z+12
 7458 2176 8B81      		ldd r24,Y+3
 7459 2178 9C81      		ldd r25,Y+4
 7460 217a FC01      		movw r30,r24
 7461 217c 2485      		ldd r18,Z+12
 7462 217e 8981      		ldd r24,Y+1
 7463 2180 9A81      		ldd r25,Y+2
 7464 2182 622F      		mov r22,r18
 7465 2184 0E94 0000 		call usb_mem_read_byte
 7466 2188 682F      		mov r22,r24
 7467 218a 70E0      		ldi r23,0
GAS LISTING sboxnet2usb.s 			page 132


 7468 218c 8981      		ldd r24,Y+1
 7469 218e 9A81      		ldd r25,Y+2
 7470 2190 9801      		movw r18,r16
 7471 2192 4F2D      		mov r20,r15
 7472 2194 0E94 0000 		call usb_ep_send_control_data
 7473               		.stabn	68,0,382,.LM795-.LFBB75
 7474               	.LM795:
 7475 2198 80E0      		ldi r24,0
 7476 219a 00C0      		rjmp .L305
 7477               	.L315:
 7478               	.LBE39:
 7479               	.LBE38:
 7480               	.LBB41:
 7481               		.stabn	68,0,354,.LM796-.LFBB75
 7482               	.LM796:
 7483 219c 0000      		nop
 7484 219e 00C0      		rjmp .L307
 7485               	.L316:
 7486               	.LBE41:
 7487               	.LBB42:
 7488               		.stabn	68,0,385,.LM797-.LFBB75
 7489               	.LM797:
 7490 21a0 0000      		nop
 7491               	.L307:
 7492               	.LBE42:
 7493               		.stabn	68,0,391,.LM798-.LFBB75
 7494               	.LM798:
 7495 21a2 81E0      		ldi r24,lo8(1)
 7496               	.L305:
 7497               	/* epilogue start */
 7498               		.stabn	68,0,392,.LM799-.LFBB75
 7499               	.LM799:
 7500 21a4 2C96      		adiw r28,12
 7501 21a6 0FB6      		in __tmp_reg__,__SREG__
 7502 21a8 F894      		cli
 7503 21aa DEBF      		out __SP_H__,r29
 7504 21ac 0FBE      		out __SREG__,__tmp_reg__
 7505 21ae CDBF      		out __SP_L__,r28
 7506 21b0 DF91      		pop r29
 7507 21b2 CF91      		pop r28
 7508 21b4 1F91      		pop r17
 7509 21b6 0F91      		pop r16
 7510 21b8 FF90      		pop r15
 7511 21ba 0895      		ret
 7512               		.size	usb_ep0_get_descriptor, .-usb_ep0_get_descriptor
 7513               		.stabs	"dev:(0,65)",128,0,337,3
 7514               		.stabn	192,0,0,.LFBB75-.LFBB75
 7515               		.stabs	"idx:(2,2)",128,0,348,5
 7516               		.stabn	192,0,0,.LBB37-.LFBB75
 7517               		.stabn	224,0,0,.LBE37-.LFBB75
 7518               		.stabs	"idx:(2,2)",128,0,359,6
 7519               		.stabn	192,0,0,.LBB38-.LFBB75
 7520               		.stabs	"paddr:(0,66)=*(0,67)=k(16,7)",128,0,364,1
 7521               		.stabn	192,0,0,.LBB39-.LFBB75
 7522               		.stabs	"__addr16:(2,4)",128,0,368,7
 7523               		.stabs	"__result:(2,4)",128,0,368,9
 7524               		.stabn	192,0,0,.LBB40-.LFBB75
GAS LISTING sboxnet2usb.s 			page 133


 7525               		.stabn	224,0,0,.LBE40-.LFBB75
 7526               		.stabn	224,0,0,.LBE39-.LFBB75
 7527               		.stabn	224,0,0,.LBE38-.LFBB75
 7528               		.stabs	"idx:(2,2)",128,0,348,5
 7529               		.stabn	192,0,0,.LBB41-.LFBB75
 7530               		.stabn	224,0,0,.LBE41-.LFBB75
 7531               		.stabs	"idx:(2,2)",128,0,359,6
 7532               		.stabn	192,0,0,.LBB42-.LFBB75
 7533               		.stabn	224,0,0,.LBE42-.LFBB75
 7534               		.stabn	224,0,0,.Lscope75-.LFBB75
 7535               	.Lscope75:
 7536               		.stabs	"",36,0,0,.Lscope75-.LFBB75
 7537               		.stabd	78,0,0
 7538               		.stabs	"usb_ep0_set_address:f(2,2)",36,0,394,usb_ep0_set_address
 7539               		.stabs	"req:p(0,61)",160,0,394,4
 7540               		.type	usb_ep0_set_address, @function
 7541               	usb_ep0_set_address:
 7542               		.stabd	46,0,0
 7543               		.stabn	68,0,394,.LM800-.LFBB76
 7544               	.LM800:
 7545               	.LFBB76:
 7546 21bc CF93      		push r28
 7547 21be DF93      		push r29
 7548 21c0 00D0      		rcall .
 7549 21c2 00D0      		rcall .
 7550 21c4 1F92      		push __zero_reg__
 7551 21c6 CDB7      		in r28,__SP_L__
 7552 21c8 DEB7      		in r29,__SP_H__
 7553               	/* prologue: function */
 7554               	/* frame size = 5 */
 7555               	/* stack size = 7 */
 7556               	.L__stack_usage = 7
 7557 21ca 9D83      		std Y+5,r25
 7558 21cc 8C83      		std Y+4,r24
 7559               		.stabn	68,0,395,.LM801-.LFBB76
 7560               	.LM801:
 7561 21ce 80E0      		ldi r24,lo8(g_usb_dev)
 7562 21d0 90E0      		ldi r25,hi8(g_usb_dev)
 7563 21d2 9A83      		std Y+2,r25
 7564 21d4 8983      		std Y+1,r24
 7565               		.stabn	68,0,397,.LM802-.LFBB76
 7566               	.LM802:
 7567 21d6 8981      		ldd r24,Y+1
 7568 21d8 9A81      		ldd r25,Y+2
 7569 21da FC01      		movw r30,r24
 7570 21dc 8081      		ld r24,Z
 7571 21de 882F      		mov r24,r24
 7572 21e0 90E0      		ldi r25,0
 7573 21e2 8C70      		andi r24,12
 7574 21e4 9927      		clr r25
 7575 21e6 892B      		or r24,r25
 7576 21e8 01F0      		breq .L318
 7577               	.LBB43:
 7578               		.stabn	68,0,398,.LM803-.LFBB76
 7579               	.LM803:
 7580 21ea 8C81      		ldd r24,Y+4
 7581 21ec 9D81      		ldd r25,Y+5
GAS LISTING sboxnet2usb.s 			page 134


 7582 21ee FC01      		movw r30,r24
 7583 21f0 8281      		ldd r24,Z+2
 7584 21f2 9381      		ldd r25,Z+3
 7585 21f4 8F77      		andi r24,lo8(127)
 7586 21f6 8B83      		std Y+3,r24
 7587               		.stabn	68,0,399,.LM804-.LFBB76
 7588               	.LM804:
 7589 21f8 0E94 0000 		call usb_ep_clearSETUP
 7590               		.stabn	68,0,400,.LM805-.LFBB76
 7591               	.LM805:
 7592 21fc 83EE      		ldi r24,lo8(-29)
 7593 21fe 90E0      		ldi r25,0
 7594               		.stabn	68,0,400,.LM806-.LFBB76
 7595               	.LM806:
 7596 2200 2B81      		ldd r18,Y+3
 7597 2202 FC01      		movw r30,r24
 7598 2204 2083      		st Z,r18
 7599               		.stabn	68,0,401,.LM807-.LFBB76
 7600               	.LM807:
 7601 2206 0E94 0000 		call usb_ep_send_zlp
 7602               		.stabn	68,0,402,.LM808-.LFBB76
 7603               	.LM808:
 7604 220a 83EE      		ldi r24,lo8(-29)
 7605 220c 90E0      		ldi r25,0
 7606 220e 23EE      		ldi r18,lo8(-29)
 7607 2210 30E0      		ldi r19,0
 7608 2212 F901      		movw r30,r18
 7609 2214 2081      		ld r18,Z
 7610 2216 2068      		ori r18,lo8(-128)
 7611 2218 FC01      		movw r30,r24
 7612 221a 2083      		st Z,r18
 7613               		.stabn	68,0,403,.LM809-.LFBB76
 7614               	.LM809:
 7615 221c 8B81      		ldd r24,Y+3
 7616 221e 8823      		tst r24
 7617 2220 01F0      		breq .L319
 7618               		.stabn	68,0,404,.LM810-.LFBB76
 7619               	.LM810:
 7620 2222 8981      		ldd r24,Y+1
 7621 2224 9A81      		ldd r25,Y+2
 7622 2226 28E0      		ldi r18,lo8(8)
 7623 2228 FC01      		movw r30,r24
 7624 222a 2083      		st Z,r18
 7625 222c 00C0      		rjmp .L320
 7626               	.L319:
 7627               		.stabn	68,0,406,.LM811-.LFBB76
 7628               	.LM811:
 7629 222e 8981      		ldd r24,Y+1
 7630 2230 9A81      		ldd r25,Y+2
 7631 2232 24E0      		ldi r18,lo8(4)
 7632 2234 FC01      		movw r30,r24
 7633 2236 2083      		st Z,r18
 7634               	.L320:
 7635               		.stabn	68,0,408,.LM812-.LFBB76
 7636               	.LM812:
 7637 2238 80E0      		ldi r24,0
 7638 223a 00C0      		rjmp .L321
GAS LISTING sboxnet2usb.s 			page 135


 7639               	.L318:
 7640               	.LBE43:
 7641               		.stabn	68,0,410,.LM813-.LFBB76
 7642               	.LM813:
 7643 223c 81E0      		ldi r24,lo8(1)
 7644               	.L321:
 7645               	/* epilogue start */
 7646               		.stabn	68,0,411,.LM814-.LFBB76
 7647               	.LM814:
 7648 223e 0F90      		pop __tmp_reg__
 7649 2240 0F90      		pop __tmp_reg__
 7650 2242 0F90      		pop __tmp_reg__
 7651 2244 0F90      		pop __tmp_reg__
 7652 2246 0F90      		pop __tmp_reg__
 7653 2248 DF91      		pop r29
 7654 224a CF91      		pop r28
 7655 224c 0895      		ret
 7656               		.size	usb_ep0_set_address, .-usb_ep0_set_address
 7657               		.stabs	"dev:(0,65)",128,0,395,1
 7658               		.stabn	192,0,0,.LFBB76-.LFBB76
 7659               		.stabs	"addr:(2,2)",128,0,398,3
 7660               		.stabn	192,0,0,.LBB43-.LFBB76
 7661               		.stabn	224,0,0,.LBE43-.LFBB76
 7662               		.stabn	224,0,0,.Lscope76-.LFBB76
 7663               	.Lscope76:
 7664               		.stabs	"",36,0,0,.Lscope76-.LFBB76
 7665               		.stabd	78,0,0
 7666               		.stabs	"usb_ep0_set_configuration:f(2,2)",36,0,413,usb_ep0_set_configuration
 7667               		.stabs	"req:p(0,61)",160,0,413,5
 7668               		.type	usb_ep0_set_configuration, @function
 7669               	usb_ep0_set_configuration:
 7670               		.stabd	46,0,0
 7671               		.stabn	68,0,413,.LM815-.LFBB77
 7672               	.LM815:
 7673               	.LFBB77:
 7674 224e CF93      		push r28
 7675 2250 DF93      		push r29
 7676 2252 00D0      		rcall .
 7677 2254 00D0      		rcall .
 7678 2256 00D0      		rcall .
 7679 2258 CDB7      		in r28,__SP_L__
 7680 225a DEB7      		in r29,__SP_H__
 7681               	/* prologue: function */
 7682               	/* frame size = 6 */
 7683               	/* stack size = 8 */
 7684               	.L__stack_usage = 8
 7685 225c 9E83      		std Y+6,r25
 7686 225e 8D83      		std Y+5,r24
 7687               		.stabn	68,0,414,.LM816-.LFBB77
 7688               	.LM816:
 7689 2260 80E0      		ldi r24,lo8(g_usb_dev)
 7690 2262 90E0      		ldi r25,hi8(g_usb_dev)
 7691 2264 9A83      		std Y+2,r25
 7692 2266 8983      		std Y+1,r24
 7693               		.stabn	68,0,415,.LM817-.LFBB77
 7694               	.LM817:
 7695 2268 8981      		ldd r24,Y+1
GAS LISTING sboxnet2usb.s 			page 136


 7696 226a 9A81      		ldd r25,Y+2
 7697 226c FC01      		movw r30,r24
 7698 226e 8081      		ld r24,Z
 7699 2270 882F      		mov r24,r24
 7700 2272 90E0      		ldi r25,0
 7701 2274 8871      		andi r24,24
 7702 2276 9927      		clr r25
 7703 2278 892B      		or r24,r25
 7704 227a 01F4      		brne .+2
 7705 227c 00C0      		rjmp .L323
 7706               	.LBB44:
 7707               		.stabn	68,0,416,.LM818-.LFBB77
 7708               	.LM818:
 7709 227e 8D81      		ldd r24,Y+5
 7710 2280 9E81      		ldd r25,Y+6
 7711 2282 FC01      		movw r30,r24
 7712 2284 8281      		ldd r24,Z+2
 7713 2286 9381      		ldd r25,Z+3
 7714 2288 8B83      		std Y+3,r24
 7715               		.stabn	68,0,417,.LM819-.LFBB77
 7716               	.LM819:
 7717 228a 8B81      		ldd r24,Y+3
 7718 228c 8823      		tst r24
 7719 228e 01F4      		brne .L324
 7720               		.stabn	68,0,418,.LM820-.LFBB77
 7721               	.LM820:
 7722 2290 8981      		ldd r24,Y+1
 7723 2292 9A81      		ldd r25,Y+2
 7724 2294 28E0      		ldi r18,lo8(8)
 7725 2296 FC01      		movw r30,r24
 7726 2298 2083      		st Z,r18
 7727               		.stabn	68,0,419,.LM821-.LFBB77
 7728               	.LM821:
 7729 229a 8981      		ldd r24,Y+1
 7730 229c 9A81      		ldd r25,Y+2
 7731 229e FC01      		movw r30,r24
 7732 22a0 1182      		std Z+1,__zero_reg__
 7733 22a2 00C0      		rjmp .L325
 7734               	.L324:
 7735               	.LBB45:
 7736               		.stabn	68,0,422,.LM822-.LFBB77
 7737               	.LM822:
 7738 22a4 8981      		ldd r24,Y+1
 7739 22a6 9A81      		ldd r25,Y+2
 7740 22a8 FC01      		movw r30,r24
 7741 22aa 2485      		ldd r18,Z+12
 7742 22ac 8981      		ldd r24,Y+1
 7743 22ae 9A81      		ldd r25,Y+2
 7744 22b0 FC01      		movw r30,r24
 7745 22b2 8481      		ldd r24,Z+4
 7746 22b4 9581      		ldd r25,Z+5
 7747 22b6 0596      		adiw r24,5
 7748 22b8 622F      		mov r22,r18
 7749 22ba 0E94 0000 		call usb_mem_read_byte
 7750 22be 8C83      		std Y+4,r24
 7751               		.stabn	68,0,423,.LM823-.LFBB77
 7752               	.LM823:
GAS LISTING sboxnet2usb.s 			page 137


 7753 22c0 9B81      		ldd r25,Y+3
 7754 22c2 8C81      		ldd r24,Y+4
 7755 22c4 9817      		cp r25,r24
 7756 22c6 01F4      		brne .L326
 7757               		.stabn	68,0,424,.LM824-.LFBB77
 7758               	.LM824:
 7759 22c8 8981      		ldd r24,Y+1
 7760 22ca 9A81      		ldd r25,Y+2
 7761 22cc 20E1      		ldi r18,lo8(16)
 7762 22ce FC01      		movw r30,r24
 7763 22d0 2083      		st Z,r18
 7764               		.stabn	68,0,425,.LM825-.LFBB77
 7765               	.LM825:
 7766 22d2 8981      		ldd r24,Y+1
 7767 22d4 9A81      		ldd r25,Y+2
 7768 22d6 2B81      		ldd r18,Y+3
 7769 22d8 FC01      		movw r30,r24
 7770 22da 2183      		std Z+1,r18
 7771               		.stabn	68,0,427,.LM826-.LFBB77
 7772               	.LM826:
 7773 22dc 0E94 0000 		call usb_event_set_configuration
 7774               		.stabn	68,0,429,.LM827-.LFBB77
 7775               	.LM827:
 7776 22e0 89EE      		ldi r24,lo8(-23)
 7777 22e2 90E0      		ldi r25,0
 7778               		.stabn	68,0,429,.LM828-.LFBB77
 7779               	.LM828:
 7780 22e4 FC01      		movw r30,r24
 7781 22e6 1082      		st Z,__zero_reg__
 7782 22e8 00C0      		rjmp .L325
 7783               	.L326:
 7784               		.stabn	68,0,432,.LM829-.LFBB77
 7785               	.LM829:
 7786 22ea 81E0      		ldi r24,lo8(1)
 7787 22ec 00C0      		rjmp .L327
 7788               	.L325:
 7789               	.LBE45:
 7790               		.stabn	68,0,435,.LM830-.LFBB77
 7791               	.LM830:
 7792 22ee 0E94 0000 		call usb_ep_clearSETUP
 7793               		.stabn	68,0,436,.LM831-.LFBB77
 7794               	.LM831:
 7795 22f2 0E94 0000 		call usb_ep_send_zlp
 7796               		.stabn	68,0,437,.LM832-.LFBB77
 7797               	.LM832:
 7798 22f6 80E0      		ldi r24,0
 7799 22f8 00C0      		rjmp .L327
 7800               	.L323:
 7801               	.LBE44:
 7802               		.stabn	68,0,439,.LM833-.LFBB77
 7803               	.LM833:
 7804 22fa 81E0      		ldi r24,lo8(1)
 7805               	.L327:
 7806               	/* epilogue start */
 7807               		.stabn	68,0,440,.LM834-.LFBB77
 7808               	.LM834:
 7809 22fc 2696      		adiw r28,6
GAS LISTING sboxnet2usb.s 			page 138


 7810 22fe 0FB6      		in __tmp_reg__,__SREG__
 7811 2300 F894      		cli
 7812 2302 DEBF      		out __SP_H__,r29
 7813 2304 0FBE      		out __SREG__,__tmp_reg__
 7814 2306 CDBF      		out __SP_L__,r28
 7815 2308 DF91      		pop r29
 7816 230a CF91      		pop r28
 7817 230c 0895      		ret
 7818               		.size	usb_ep0_set_configuration, .-usb_ep0_set_configuration
 7819               		.stabs	"dev:(0,65)",128,0,414,1
 7820               		.stabn	192,0,0,.LFBB77-.LFBB77
 7821               		.stabs	"confnr:(2,2)",128,0,416,3
 7822               		.stabn	192,0,0,.LBB44-.LFBB77
 7823               		.stabs	"cnr:(2,2)",128,0,422,4
 7824               		.stabn	192,0,0,.LBB45-.LFBB77
 7825               		.stabn	224,0,0,.LBE45-.LFBB77
 7826               		.stabn	224,0,0,.LBE44-.LFBB77
 7827               		.stabn	224,0,0,.Lscope77-.LFBB77
 7828               	.Lscope77:
 7829               		.stabs	"",36,0,0,.Lscope77-.LFBB77
 7830               		.stabd	78,0,0
 7831               		.stabs	"usb_ep0_task:F(0,49)",36,0,443,usb_ep0_task
 7832               	.global	usb_ep0_task
 7833               		.type	usb_ep0_task, @function
 7834               	usb_ep0_task:
 7835               		.stabd	46,0,0
 7836               		.stabn	68,0,443,.LM835-.LFBB78
 7837               	.LM835:
 7838               	.LFBB78:
 7839 230e CF93      		push r28
 7840 2310 DF93      		push r29
 7841 2312 CDB7      		in r28,__SP_L__
 7842 2314 DEB7      		in r29,__SP_H__
 7843 2316 2997      		sbiw r28,9
 7844 2318 0FB6      		in __tmp_reg__,__SREG__
 7845 231a F894      		cli
 7846 231c DEBF      		out __SP_H__,r29
 7847 231e 0FBE      		out __SREG__,__tmp_reg__
 7848 2320 CDBF      		out __SP_L__,r28
 7849               	/* prologue: function */
 7850               	/* frame size = 9 */
 7851               	/* stack size = 11 */
 7852               	.L__stack_usage = 11
 7853               		.stabn	68,0,446,.LM836-.LFBB78
 7854               	.LM836:
 7855 2322 89EE      		ldi r24,lo8(-23)
 7856 2324 90E0      		ldi r25,0
 7857               		.stabn	68,0,446,.LM837-.LFBB78
 7858               	.LM837:
 7859 2326 FC01      		movw r30,r24
 7860 2328 1082      		st Z,__zero_reg__
 7861               		.stabn	68,0,447,.LM838-.LFBB78
 7862               	.LM838:
 7863 232a 0E94 0000 		call usb_ep_isSETUP
 7864 232e 8823      		tst r24
 7865 2330 01F4      		brne .+2
 7866 2332 00C0      		rjmp .L351
GAS LISTING sboxnet2usb.s 			page 139


 7867               	.LBB46:
 7868               		.stabn	68,0,449,.LM839-.LFBB78
 7869               	.LM839:
 7870 2334 CE01      		movw r24,r28
 7871 2336 0296      		adiw r24,2
 7872 2338 68E0      		ldi r22,lo8(8)
 7873 233a 0E94 0000 		call usb_ep_read_data
 7874               		.stabn	68,0,451,.LM840-.LFBB78
 7875               	.LM840:
 7876 233e 81E0      		ldi r24,lo8(1)
 7877 2340 8983      		std Y+1,r24
 7878               		.stabn	68,0,459,.LM841-.LFBB78
 7879               	.LM841:
 7880 2342 8A81      		ldd r24,Y+2
 7881 2344 882F      		mov r24,r24
 7882 2346 90E0      		ldi r25,0
 7883 2348 8076      		andi r24,96
 7884 234a 9927      		clr r25
 7885 234c 892B      		or r24,r25
 7886 234e 01F0      		breq .+2
 7887 2350 00C0      		rjmp .L330
 7888               		.stabn	68,0,460,.LM842-.LFBB78
 7889               	.LM842:
 7890 2352 8B81      		ldd r24,Y+3
 7891 2354 882F      		mov r24,r24
 7892 2356 90E0      		ldi r25,0
 7893 2358 8730      		cpi r24,7
 7894 235a 9105      		cpc r25,__zero_reg__
 7895 235c 01F4      		brne .+2
 7896 235e 00C0      		rjmp .L352
 7897 2360 8830      		cpi r24,8
 7898 2362 9105      		cpc r25,__zero_reg__
 7899 2364 04F4      		brge .L333
 7900 2366 8330      		cpi r24,3
 7901 2368 9105      		cpc r25,__zero_reg__
 7902 236a 01F4      		brne .+2
 7903 236c 00C0      		rjmp .L353
 7904 236e 8430      		cpi r24,4
 7905 2370 9105      		cpc r25,__zero_reg__
 7906 2372 04F4      		brge .L335
 7907 2374 0097      		sbiw r24,0
 7908 2376 01F4      		brne .+2
 7909 2378 00C0      		rjmp .L354
 7910 237a 0197      		sbiw r24,1
 7911 237c 01F4      		brne .+2
 7912 237e 00C0      		rjmp .L355
 7913               		.stabn	68,0,514,.LM843-.LFBB78
 7914               	.LM843:
 7915 2380 00C0      		rjmp .L330
 7916               	.L335:
 7917               		.stabn	68,0,460,.LM844-.LFBB78
 7918               	.LM844:
 7919 2382 8530      		cpi r24,5
 7920 2384 9105      		cpc r25,__zero_reg__
 7921 2386 01F0      		breq .L338
 7922 2388 0697      		sbiw r24,6
 7923 238a 01F0      		breq .L339
GAS LISTING sboxnet2usb.s 			page 140


 7924               		.stabn	68,0,514,.LM845-.LFBB78
 7925               	.LM845:
 7926 238c 00C0      		rjmp .L330
 7927               	.L333:
 7928               		.stabn	68,0,460,.LM846-.LFBB78
 7929               	.LM846:
 7930 238e 8A30      		cpi r24,10
 7931 2390 9105      		cpc r25,__zero_reg__
 7932 2392 01F0      		breq .L356
 7933 2394 8B30      		cpi r24,11
 7934 2396 9105      		cpc r25,__zero_reg__
 7935 2398 04F4      		brge .L341
 7936 239a 8830      		cpi r24,8
 7937 239c 9105      		cpc r25,__zero_reg__
 7938 239e 01F0      		breq .L342
 7939 23a0 0997      		sbiw r24,9
 7940 23a2 01F0      		breq .L343
 7941               		.stabn	68,0,514,.LM847-.LFBB78
 7942               	.LM847:
 7943 23a4 00C0      		rjmp .L330
 7944               	.L341:
 7945               		.stabn	68,0,460,.LM848-.LFBB78
 7946               	.LM848:
 7947 23a6 8B30      		cpi r24,11
 7948 23a8 9105      		cpc r25,__zero_reg__
 7949 23aa 01F0      		breq .L357
 7950 23ac 0C97      		sbiw r24,12
 7951 23ae 01F0      		breq .L358
 7952               		.stabn	68,0,514,.LM849-.LFBB78
 7953               	.LM849:
 7954 23b0 00C0      		rjmp .L330
 7955               	.L342:
 7956               		.stabn	68,0,466,.LM850-.LFBB78
 7957               	.LM850:
 7958 23b2 8A81      		ldd r24,Y+2
 7959 23b4 8038      		cpi r24,lo8(-128)
 7960 23b6 01F4      		brne .L359
 7961               		.stabn	68,0,467,.LM851-.LFBB78
 7962               	.LM851:
 7963 23b8 0E94 0000 		call usb_ep0_get_configuration
 7964 23bc 8983      		std Y+1,r24
 7965               		.stabn	68,0,469,.LM852-.LFBB78
 7966               	.LM852:
 7967 23be 00C0      		rjmp .L359
 7968               	.L339:
 7969               		.stabn	68,0,472,.LM853-.LFBB78
 7970               	.LM853:
 7971 23c0 8A81      		ldd r24,Y+2
 7972 23c2 8038      		cpi r24,lo8(-128)
 7973 23c4 01F4      		brne .L360
 7974               		.stabn	68,0,473,.LM854-.LFBB78
 7975               	.LM854:
 7976 23c6 CE01      		movw r24,r28
 7977 23c8 0296      		adiw r24,2
 7978 23ca 0E94 0000 		call usb_ep0_get_descriptor
 7979 23ce 8983      		std Y+1,r24
 7980               		.stabn	68,0,475,.LM855-.LFBB78
GAS LISTING sboxnet2usb.s 			page 141


 7981               	.LM855:
 7982 23d0 00C0      		rjmp .L360
 7983               	.L338:
 7984               		.stabn	68,0,486,.LM856-.LFBB78
 7985               	.LM856:
 7986 23d2 8A81      		ldd r24,Y+2
 7987 23d4 8823      		tst r24
 7988 23d6 01F4      		brne .L361
 7989               		.stabn	68,0,487,.LM857-.LFBB78
 7990               	.LM857:
 7991 23d8 CE01      		movw r24,r28
 7992 23da 0296      		adiw r24,2
 7993 23dc 0E94 0000 		call usb_ep0_set_address
 7994 23e0 8983      		std Y+1,r24
 7995               		.stabn	68,0,489,.LM858-.LFBB78
 7996               	.LM858:
 7997 23e2 00C0      		rjmp .L361
 7998               	.L343:
 7999               		.stabn	68,0,492,.LM859-.LFBB78
 8000               	.LM859:
 8001 23e4 8A81      		ldd r24,Y+2
 8002 23e6 8823      		tst r24
 8003 23e8 01F4      		brne .L362
 8004               		.stabn	68,0,493,.LM860-.LFBB78
 8005               	.LM860:
 8006 23ea CE01      		movw r24,r28
 8007 23ec 0296      		adiw r24,2
 8008 23ee 0E94 0000 		call usb_ep0_set_configuration
 8009 23f2 8983      		std Y+1,r24
 8010               		.stabn	68,0,495,.LM861-.LFBB78
 8011               	.LM861:
 8012 23f4 00C0      		rjmp .L362
 8013               	.L352:
 8014               		.stabn	68,0,499,.LM862-.LFBB78
 8015               	.LM862:
 8016 23f6 0000      		nop
 8017 23f8 00C0      		rjmp .L330
 8018               	.L353:
 8019               		.stabn	68,0,503,.LM863-.LFBB78
 8020               	.LM863:
 8021 23fa 0000      		nop
 8022 23fc 00C0      		rjmp .L330
 8023               	.L354:
 8024               		.stabn	68,0,483,.LM864-.LFBB78
 8025               	.LM864:
 8026 23fe 0000      		nop
 8027 2400 00C0      		rjmp .L330
 8028               	.L355:
 8029               		.stabn	68,0,463,.LM865-.LFBB78
 8030               	.LM865:
 8031 2402 0000      		nop
 8032 2404 00C0      		rjmp .L330
 8033               	.L356:
 8034               		.stabn	68,0,479,.LM866-.LFBB78
 8035               	.LM866:
 8036 2406 0000      		nop
 8037 2408 00C0      		rjmp .L330
GAS LISTING sboxnet2usb.s 			page 142


 8038               	.L357:
 8039               		.stabn	68,0,507,.LM867-.LFBB78
 8040               	.LM867:
 8041 240a 0000      		nop
 8042 240c 00C0      		rjmp .L330
 8043               	.L358:
 8044               		.stabn	68,0,511,.LM868-.LFBB78
 8045               	.LM868:
 8046 240e 0000      		nop
 8047 2410 00C0      		rjmp .L330
 8048               	.L359:
 8049               		.stabn	68,0,469,.LM869-.LFBB78
 8050               	.LM869:
 8051 2412 0000      		nop
 8052 2414 00C0      		rjmp .L330
 8053               	.L360:
 8054               		.stabn	68,0,475,.LM870-.LFBB78
 8055               	.LM870:
 8056 2416 0000      		nop
 8057 2418 00C0      		rjmp .L330
 8058               	.L361:
 8059               		.stabn	68,0,489,.LM871-.LFBB78
 8060               	.LM871:
 8061 241a 0000      		nop
 8062 241c 00C0      		rjmp .L330
 8063               	.L362:
 8064               		.stabn	68,0,495,.LM872-.LFBB78
 8065               	.LM872:
 8066 241e 0000      		nop
 8067               	.L330:
 8068               		.stabn	68,0,517,.LM873-.LFBB78
 8069               	.LM873:
 8070 2420 8981      		ldd r24,Y+1
 8071 2422 8823      		tst r24
 8072 2424 01F0      		breq .L350
 8073               		.stabn	68,0,518,.LM874-.LFBB78
 8074               	.LM874:
 8075 2426 CE01      		movw r24,r28
 8076 2428 0296      		adiw r24,2
 8077 242a 0E94 0000 		call usb_event_ep0_request
 8078 242e 8983      		std Y+1,r24
 8079               	.L350:
 8080               		.stabn	68,0,521,.LM875-.LFBB78
 8081               	.LM875:
 8082 2430 89EE      		ldi r24,lo8(-23)
 8083 2432 90E0      		ldi r25,0
 8084               		.stabn	68,0,521,.LM876-.LFBB78
 8085               	.LM876:
 8086 2434 FC01      		movw r30,r24
 8087 2436 1082      		st Z,__zero_reg__
 8088               		.stabn	68,0,523,.LM877-.LFBB78
 8089               	.LM877:
 8090 2438 8981      		ldd r24,Y+1
 8091 243a 8823      		tst r24
 8092 243c 01F0      		breq .L351
 8093               		.stabn	68,0,524,.LM878-.LFBB78
 8094               	.LM878:
GAS LISTING sboxnet2usb.s 			page 143


 8095 243e 0E94 0000 		call usb_ep_clearSETUP
 8096               		.stabn	68,0,525,.LM879-.LFBB78
 8097               	.LM879:
 8098 2442 0E94 0000 		call usb_ep_set_stall
 8099               	.L351:
 8100               	.LBE46:
 8101               		.stabn	68,0,530,.LM880-.LFBB78
 8102               	.LM880:
 8103 2446 0000      		nop
 8104               	/* epilogue start */
 8105 2448 2996      		adiw r28,9
 8106 244a 0FB6      		in __tmp_reg__,__SREG__
 8107 244c F894      		cli
 8108 244e DEBF      		out __SP_H__,r29
 8109 2450 0FBE      		out __SREG__,__tmp_reg__
 8110 2452 CDBF      		out __SP_L__,r28
 8111 2454 DF91      		pop r29
 8112 2456 CF91      		pop r28
 8113 2458 0895      		ret
 8114               		.size	usb_ep0_task, .-usb_ep0_task
 8115               		.stabs	"req:(16,8)",128,0,444,2
 8116               		.stabn	192,0,0,.LFBB78-.LFBB78
 8117               		.stabs	"rc:(2,2)",128,0,451,1
 8118               		.stabn	192,0,0,.LBB46-.LFBB78
 8119               		.stabn	224,0,0,.LBE46-.LFBB78
 8120               		.stabn	224,0,0,.Lscope78-.LFBB78
 8121               	.Lscope78:
 8122               		.stabs	"",36,0,0,.Lscope78-.LFBB78
 8123               		.stabd	78,0,0
 8124               		.stabs	"usb_ep_setup:F(0,49)",36,0,533,usb_ep_setup
 8125               		.stabs	"epaddr:p(2,2)",160,0,533,3
 8126               		.stabs	"epattr:p(2,2)",160,0,533,4
 8127               		.stabs	"epsize:p(2,2)",160,0,533,5
 8128               		.stabs	"epbanks:p(2,2)",160,0,533,6
 8129               	.global	usb_ep_setup
 8130               		.type	usb_ep_setup, @function
 8131               	usb_ep_setup:
 8132               		.stabd	46,0,0
 8133               		.stabn	68,0,533,.LM881-.LFBB79
 8134               	.LM881:
 8135               	.LFBB79:
 8136 245a CF93      		push r28
 8137 245c DF93      		push r29
 8138 245e 00D0      		rcall .
 8139 2460 00D0      		rcall .
 8140 2462 00D0      		rcall .
 8141 2464 CDB7      		in r28,__SP_L__
 8142 2466 DEB7      		in r29,__SP_H__
 8143               	/* prologue: function */
 8144               	/* frame size = 6 */
 8145               	/* stack size = 8 */
 8146               	.L__stack_usage = 8
 8147 2468 8B83      		std Y+3,r24
 8148 246a 6C83      		std Y+4,r22
 8149 246c 4D83      		std Y+5,r20
 8150 246e 2E83      		std Y+6,r18
 8151               		.stabn	68,0,537,.LM882-.LFBB79
GAS LISTING sboxnet2usb.s 			page 144


 8152               	.LM882:
 8153 2470 8D81      		ldd r24,Y+5
 8154 2472 882F      		mov r24,r24
 8155 2474 90E0      		ldi r25,0
 8156 2476 8031      		cpi r24,16
 8157 2478 9105      		cpc r25,__zero_reg__
 8158 247a 01F0      		breq .L365
 8159 247c 8032      		cpi r24,32
 8160 247e 9105      		cpc r25,__zero_reg__
 8161 2480 01F0      		breq .L366
 8162 2482 0897      		sbiw r24,8
 8163 2484 01F4      		brne .L369
 8164               		.stabn	68,0,538,.LM883-.LFBB79
 8165               	.LM883:
 8166 2486 82E0      		ldi r24,lo8(2)
 8167 2488 8983      		std Y+1,r24
 8168               		.stabn	68,0,538,.LM884-.LFBB79
 8169               	.LM884:
 8170 248a 00C0      		rjmp .L368
 8171               	.L365:
 8172               		.stabn	68,0,539,.LM885-.LFBB79
 8173               	.LM885:
 8174 248c 82E1      		ldi r24,lo8(18)
 8175 248e 8983      		std Y+1,r24
 8176               		.stabn	68,0,539,.LM886-.LFBB79
 8177               	.LM886:
 8178 2490 00C0      		rjmp .L368
 8179               	.L366:
 8180               		.stabn	68,0,540,.LM887-.LFBB79
 8181               	.LM887:
 8182 2492 82E2      		ldi r24,lo8(34)
 8183 2494 8983      		std Y+1,r24
 8184               		.stabn	68,0,540,.LM888-.LFBB79
 8185               	.LM888:
 8186 2496 00C0      		rjmp .L368
 8187               	.L369:
 8188               		.stabn	68,0,541,.LM889-.LFBB79
 8189               	.LM889:
 8190 2498 82E3      		ldi r24,lo8(50)
 8191 249a 8983      		std Y+1,r24
 8192               		.stabn	68,0,541,.LM890-.LFBB79
 8193               	.LM890:
 8194 249c 0000      		nop
 8195               	.L368:
 8196               		.stabn	68,0,543,.LM891-.LFBB79
 8197               	.LM891:
 8198 249e 8C81      		ldd r24,Y+4
 8199 24a0 8370      		andi r24,lo8(3)
 8200 24a2 8A83      		std Y+2,r24
 8201               		.stabn	68,0,545,.LM892-.LFBB79
 8202               	.LM892:
 8203 24a4 89EE      		ldi r24,lo8(-23)
 8204 24a6 90E0      		ldi r25,0
 8205               		.stabn	68,0,545,.LM893-.LFBB79
 8206               	.LM893:
 8207 24a8 2B81      		ldd r18,Y+3
 8208 24aa 2770      		andi r18,lo8(7)
GAS LISTING sboxnet2usb.s 			page 145


 8209 24ac FC01      		movw r30,r24
 8210 24ae 2083      		st Z,r18
 8211               		.stabn	68,0,546,.LM894-.LFBB79
 8212               	.LM894:
 8213 24b0 8BEE      		ldi r24,lo8(-21)
 8214 24b2 90E0      		ldi r25,0
 8215 24b4 2BEE      		ldi r18,lo8(-21)
 8216 24b6 30E0      		ldi r19,0
 8217 24b8 F901      		movw r30,r18
 8218 24ba 2081      		ld r18,Z
 8219 24bc 2160      		ori r18,lo8(1)
 8220 24be FC01      		movw r30,r24
 8221 24c0 2083      		st Z,r18
 8222               		.stabn	68,0,547,.LM895-.LFBB79
 8223               	.LM895:
 8224 24c2 8CEE      		ldi r24,lo8(-20)
 8225 24c4 90E0      		ldi r25,0
 8226               		.stabn	68,0,547,.LM896-.LFBB79
 8227               	.LM896:
 8228 24c6 2A81      		ldd r18,Y+2
 8229 24c8 222F      		mov r18,r18
 8230 24ca 30E0      		ldi r19,0
 8231 24cc 0024      		clr __tmp_reg__
 8232 24ce 3695      		lsr r19
 8233 24d0 2795      		ror r18
 8234 24d2 0794      		ror __tmp_reg__
 8235 24d4 3695      		lsr r19
 8236 24d6 2795      		ror r18
 8237 24d8 0794      		ror __tmp_reg__
 8238 24da 322F      		mov r19,r18
 8239 24dc 202D      		mov r18,__tmp_reg__
 8240 24de 322F      		mov r19,r18
 8241 24e0 2B81      		ldd r18,Y+3
 8242               		.stabn	68,0,547,.LM897-.LFBB79
 8243               	.LM897:
 8244 24e2 221F      		rol r18
 8245 24e4 2227      		clr r18
 8246 24e6 221F      		rol r18
 8247               		.stabn	68,0,547,.LM898-.LFBB79
 8248               	.LM898:
 8249 24e8 232B      		or r18,r19
 8250 24ea FC01      		movw r30,r24
 8251 24ec 2083      		st Z,r18
 8252               		.stabn	68,0,548,.LM899-.LFBB79
 8253               	.LM899:
 8254 24ee 8DEE      		ldi r24,lo8(-19)
 8255 24f0 90E0      		ldi r25,0
 8256               		.stabn	68,0,548,.LM900-.LFBB79
 8257               	.LM900:
 8258 24f2 2E81      		ldd r18,Y+6
 8259 24f4 222F      		mov r18,r18
 8260 24f6 30E0      		ldi r19,0
 8261 24f8 2170      		andi r18,1
 8262 24fa 3327      		clr r19
 8263 24fc 220F      		lsl r18
 8264 24fe 331F      		rol r19
 8265 2500 220F      		lsl r18
GAS LISTING sboxnet2usb.s 			page 146


 8266 2502 331F      		rol r19
 8267 2504 322F      		mov r19,r18
 8268 2506 2981      		ldd r18,Y+1
 8269 2508 232B      		or r18,r19
 8270 250a FC01      		movw r30,r24
 8271 250c 2083      		st Z,r18
 8272               		.stabn	68,0,565,.LM901-.LFBB79
 8273               	.LM901:
 8274 250e 80EF      		ldi r24,lo8(-16)
 8275 2510 90E0      		ldi r25,0
 8276               		.stabn	68,0,565,.LM902-.LFBB79
 8277               	.LM902:
 8278 2512 FC01      		movw r30,r24
 8279 2514 1082      		st Z,__zero_reg__
 8280               		.stabn	68,0,566,.LM903-.LFBB79
 8281               	.LM903:
 8282 2516 0000      		nop
 8283               		.stabn	68,0,570,.LM904-.LFBB79
 8284               	.LM904:
 8285 2518 0000      		nop
 8286               	/* epilogue start */
 8287 251a 2696      		adiw r28,6
 8288 251c 0FB6      		in __tmp_reg__,__SREG__
 8289 251e F894      		cli
 8290 2520 DEBF      		out __SP_H__,r29
 8291 2522 0FBE      		out __SREG__,__tmp_reg__
 8292 2524 CDBF      		out __SP_L__,r28
 8293 2526 DF91      		pop r29
 8294 2528 CF91      		pop r28
 8295 252a 0895      		ret
 8296               		.size	usb_ep_setup, .-usb_ep_setup
 8297               		.stabs	"sz:(2,2)",128,0,535,1
 8298               		.stabs	"type:(2,2)",128,0,536,2
 8299               		.stabn	192,0,0,.LFBB79-.LFBB79
 8300               		.stabn	224,0,0,.Lscope79-.LFBB79
 8301               	.Lscope79:
 8302               		.stabs	"",36,0,0,.Lscope79-.LFBB79
 8303               		.stabd	78,0,0
 8304               		.stabs	"usb_ep_setup_control:F(0,49)",36,0,572,usb_ep_setup_control
 8305               	.global	usb_ep_setup_control
 8306               		.type	usb_ep_setup_control, @function
 8307               	usb_ep_setup_control:
 8308               		.stabd	46,0,0
 8309               		.stabn	68,0,572,.LM905-.LFBB80
 8310               	.LM905:
 8311               	.LFBB80:
 8312 252c CF93      		push r28
 8313 252e DF93      		push r29
 8314 2530 00D0      		rcall .
 8315 2532 1F92      		push __zero_reg__
 8316 2534 CDB7      		in r28,__SP_L__
 8317 2536 DEB7      		in r29,__SP_H__
 8318               	/* prologue: function */
 8319               	/* frame size = 3 */
 8320               	/* stack size = 5 */
 8321               	.L__stack_usage = 5
 8322               		.stabn	68,0,573,.LM906-.LFBB80
GAS LISTING sboxnet2usb.s 			page 147


 8323               	.LM906:
 8324 2538 80E0      		ldi r24,lo8(g_usb_dev)
 8325 253a 90E0      		ldi r25,hi8(g_usb_dev)
 8326 253c 9A83      		std Y+2,r25
 8327 253e 8983      		std Y+1,r24
 8328               		.stabn	68,0,574,.LM907-.LFBB80
 8329               	.LM907:
 8330 2540 8981      		ldd r24,Y+1
 8331 2542 9A81      		ldd r25,Y+2
 8332 2544 FC01      		movw r30,r24
 8333 2546 2485      		ldd r18,Z+12
 8334 2548 8981      		ldd r24,Y+1
 8335 254a 9A81      		ldd r25,Y+2
 8336 254c FC01      		movw r30,r24
 8337 254e 8281      		ldd r24,Z+2
 8338 2550 9381      		ldd r25,Z+3
 8339 2552 0796      		adiw r24,7
 8340 2554 622F      		mov r22,r18
 8341 2556 0E94 0000 		call usb_mem_read_byte
 8342 255a 8B83      		std Y+3,r24
 8343               		.stabn	68,0,575,.LM908-.LFBB80
 8344               	.LM908:
 8345 255c 20E0      		ldi r18,0
 8346 255e 4B81      		ldd r20,Y+3
 8347 2560 60E0      		ldi r22,0
 8348 2562 80E0      		ldi r24,0
 8349 2564 0E94 0000 		call usb_ep_setup
 8350               		.stabn	68,0,576,.LM909-.LFBB80
 8351               	.LM909:
 8352 2568 0000      		nop
 8353               	/* epilogue start */
 8354 256a 0F90      		pop __tmp_reg__
 8355 256c 0F90      		pop __tmp_reg__
 8356 256e 0F90      		pop __tmp_reg__
 8357 2570 DF91      		pop r29
 8358 2572 CF91      		pop r28
 8359 2574 0895      		ret
 8360               		.size	usb_ep_setup_control, .-usb_ep_setup_control
 8361               		.stabs	"dev:(0,65)",128,0,573,1
 8362               		.stabs	"size:(2,2)",128,0,574,3
 8363               		.stabn	192,0,0,.LFBB80-.LFBB80
 8364               		.stabn	224,0,0,.Lscope80-.LFBB80
 8365               	.Lscope80:
 8366               		.stabs	"",36,0,0,.Lscope80-.LFBB80
 8367               		.stabd	78,0,0
 8368               		.stabs	"usb_intr_endofreset:F(0,49)",36,0,578,usb_intr_endofreset
 8369               	.global	usb_intr_endofreset
 8370               		.type	usb_intr_endofreset, @function
 8371               	usb_intr_endofreset:
 8372               		.stabd	46,0,0
 8373               		.stabn	68,0,578,.LM910-.LFBB81
 8374               	.LM910:
 8375               	.LFBB81:
 8376 2576 CF93      		push r28
 8377 2578 DF93      		push r29
 8378 257a CDB7      		in r28,__SP_L__
 8379 257c DEB7      		in r29,__SP_H__
GAS LISTING sboxnet2usb.s 			page 148


 8380               	/* prologue: function */
 8381               	/* frame size = 0 */
 8382               	/* stack size = 2 */
 8383               	.L__stack_usage = 2
 8384               		.stabn	68,0,579,.LM911-.LFBB81
 8385               	.LM911:
 8386 257e 0E94 0000 		call usb_ep_setup_control
 8387               		.stabn	68,0,581,.LM912-.LFBB81
 8388               	.LM912:
 8389 2582 84E0      		ldi r24,lo8(4)
 8390 2584 8093 0000 		sts g_usb_dev,r24
 8391               		.stabn	68,0,582,.LM913-.LFBB81
 8392               	.LM913:
 8393 2588 1092 0000 		sts g_usb_dev+1,__zero_reg__
 8394               		.stabn	68,0,583,.LM914-.LFBB81
 8395               	.LM914:
 8396 258c 0000      		nop
 8397               	/* epilogue start */
 8398 258e DF91      		pop r29
 8399 2590 CF91      		pop r28
 8400 2592 0895      		ret
 8401               		.size	usb_intr_endofreset, .-usb_intr_endofreset
 8402               	.Lscope81:
 8403               		.stabs	"",36,0,0,.Lscope81-.LFBB81
 8404               		.stabd	78,0,0
 8405               		.stabs	"usb_init:F(0,49)",36,0,585,usb_init
 8406               		.stabs	"pdevdesc:p(16,14)",160,0,585,3
 8407               		.stabs	"pconfig:p(16,16)",160,0,586,5
 8408               		.stabs	"configsize:p(2,2)",160,0,586,7
 8409               		.stabs	"pstrings:p(16,18)",160,0,587,8
 8410               		.stabs	"numstrings:p(2,2)",160,0,587,10
 8411               		.stabs	"getstringfunc:p(16,9)",160,0,588,11
 8412               		.stabs	"desc_dtype:p(2,2)",160,0,589,13
 8413               	.global	usb_init
 8414               		.type	usb_init, @function
 8415               	usb_init:
 8416               		.stabd	46,0,0
 8417               		.stabn	68,0,589,.LM915-.LFBB82
 8418               	.LM915:
 8419               	.LFBB82:
 8420 2594 CF92      		push r12
 8421 2596 EF92      		push r14
 8422 2598 FF92      		push r15
 8423 259a 0F93      		push r16
 8424 259c CF93      		push r28
 8425 259e DF93      		push r29
 8426 25a0 CDB7      		in r28,__SP_L__
 8427 25a2 DEB7      		in r29,__SP_H__
 8428 25a4 2D97      		sbiw r28,13
 8429 25a6 0FB6      		in __tmp_reg__,__SREG__
 8430 25a8 F894      		cli
 8431 25aa DEBF      		out __SP_H__,r29
 8432 25ac 0FBE      		out __SREG__,__tmp_reg__
 8433 25ae CDBF      		out __SP_L__,r28
 8434               	/* prologue: function */
 8435               	/* frame size = 13 */
 8436               	/* stack size = 19 */
GAS LISTING sboxnet2usb.s 			page 149


 8437               	.L__stack_usage = 19
 8438 25b0 9C83      		std Y+4,r25
 8439 25b2 8B83      		std Y+3,r24
 8440 25b4 7E83      		std Y+6,r23
 8441 25b6 6D83      		std Y+5,r22
 8442 25b8 4F83      		std Y+7,r20
 8443 25ba 3987      		std Y+9,r19
 8444 25bc 2887      		std Y+8,r18
 8445 25be 0A87      		std Y+10,r16
 8446 25c0 FC86      		std Y+12,r15
 8447 25c2 EB86      		std Y+11,r14
 8448 25c4 CD86      		std Y+13,r12
 8449               		.stabn	68,0,592,.LM916-.LFBB82
 8450               	.LM916:
 8451 25c6 80E0      		ldi r24,lo8(g_usb_dev)
 8452 25c8 90E0      		ldi r25,hi8(g_usb_dev)
 8453 25ca 9A83      		std Y+2,r25
 8454 25cc 8983      		std Y+1,r24
 8455               		.stabn	68,0,593,.LM917-.LFBB82
 8456               	.LM917:
 8457 25ce 8981      		ldd r24,Y+1
 8458 25d0 9A81      		ldd r25,Y+2
 8459 25d2 4DE0      		ldi r20,lo8(13)
 8460 25d4 50E0      		ldi r21,0
 8461 25d6 60E0      		ldi r22,0
 8462 25d8 70E0      		ldi r23,0
 8463 25da 0E94 0000 		call memset
 8464               		.stabn	68,0,594,.LM918-.LFBB82
 8465               	.LM918:
 8466 25de 8981      		ldd r24,Y+1
 8467 25e0 9A81      		ldd r25,Y+2
 8468 25e2 FC01      		movw r30,r24
 8469 25e4 1082      		st Z,__zero_reg__
 8470               		.stabn	68,0,595,.LM919-.LFBB82
 8471               	.LM919:
 8472 25e6 8981      		ldd r24,Y+1
 8473 25e8 9A81      		ldd r25,Y+2
 8474 25ea FC01      		movw r30,r24
 8475 25ec 1182      		std Z+1,__zero_reg__
 8476               		.stabn	68,0,596,.LM920-.LFBB82
 8477               	.LM920:
 8478 25ee 8981      		ldd r24,Y+1
 8479 25f0 9A81      		ldd r25,Y+2
 8480 25f2 2B81      		ldd r18,Y+3
 8481 25f4 3C81      		ldd r19,Y+4
 8482 25f6 FC01      		movw r30,r24
 8483 25f8 3383      		std Z+3,r19
 8484 25fa 2283      		std Z+2,r18
 8485               		.stabn	68,0,597,.LM921-.LFBB82
 8486               	.LM921:
 8487 25fc 8981      		ldd r24,Y+1
 8488 25fe 9A81      		ldd r25,Y+2
 8489 2600 2D81      		ldd r18,Y+5
 8490 2602 3E81      		ldd r19,Y+6
 8491 2604 FC01      		movw r30,r24
 8492 2606 3583      		std Z+5,r19
 8493 2608 2483      		std Z+4,r18
GAS LISTING sboxnet2usb.s 			page 150


 8494               		.stabn	68,0,598,.LM922-.LFBB82
 8495               	.LM922:
 8496 260a 8981      		ldd r24,Y+1
 8497 260c 9A81      		ldd r25,Y+2
 8498 260e 2F81      		ldd r18,Y+7
 8499 2610 FC01      		movw r30,r24
 8500 2612 2683      		std Z+6,r18
 8501               		.stabn	68,0,599,.LM923-.LFBB82
 8502               	.LM923:
 8503 2614 8981      		ldd r24,Y+1
 8504 2616 9A81      		ldd r25,Y+2
 8505 2618 2885      		ldd r18,Y+8
 8506 261a 3985      		ldd r19,Y+9
 8507 261c FC01      		movw r30,r24
 8508 261e 3087      		std Z+8,r19
 8509 2620 2783      		std Z+7,r18
 8510               		.stabn	68,0,600,.LM924-.LFBB82
 8511               	.LM924:
 8512 2622 8981      		ldd r24,Y+1
 8513 2624 9A81      		ldd r25,Y+2
 8514 2626 2A85      		ldd r18,Y+10
 8515 2628 FC01      		movw r30,r24
 8516 262a 2187      		std Z+9,r18
 8517               		.stabn	68,0,601,.LM925-.LFBB82
 8518               	.LM925:
 8519 262c 8981      		ldd r24,Y+1
 8520 262e 9A81      		ldd r25,Y+2
 8521 2630 2B85      		ldd r18,Y+11
 8522 2632 3C85      		ldd r19,Y+12
 8523 2634 FC01      		movw r30,r24
 8524 2636 3387      		std Z+11,r19
 8525 2638 2287      		std Z+10,r18
 8526               		.stabn	68,0,602,.LM926-.LFBB82
 8527               	.LM926:
 8528 263a 8981      		ldd r24,Y+1
 8529 263c 9A81      		ldd r25,Y+2
 8530 263e 2D85      		ldd r18,Y+13
 8531 2640 FC01      		movw r30,r24
 8532 2642 2487      		std Z+12,r18
 8533               		.stabn	68,0,604,.LM927-.LFBB82
 8534               	.LM927:
 8535 2644 88ED      		ldi r24,lo8(-40)
 8536 2646 90E0      		ldi r25,0
 8537               		.stabn	68,0,604,.LM928-.LFBB82
 8538               	.LM928:
 8539 2648 20E2      		ldi r18,lo8(32)
 8540 264a FC01      		movw r30,r24
 8541 264c 2083      		st Z,r18
 8542               		.stabn	68,0,605,.LM929-.LFBB82
 8543               	.LM929:
 8544 264e 8BEF      		ldi r24,lo8(-5)
 8545 2650 90E0      		ldi r25,0
 8546               		.stabn	68,0,605,.LM930-.LFBB82
 8547               	.LM930:
 8548 2652 FC01      		movw r30,r24
 8549 2654 1082      		st Z,__zero_reg__
 8550               		.stabn	68,0,608,.LM931-.LFBB82
GAS LISTING sboxnet2usb.s 			page 151


 8551               	.LM931:
 8552 2656 89E4      		ldi r24,lo8(73)
 8553 2658 90E0      		ldi r25,0
 8554               		.stabn	68,0,608,.LM932-.LFBB82
 8555               	.LM932:
 8556 265a 24E0      		ldi r18,lo8(4)
 8557 265c FC01      		movw r30,r24
 8558 265e 2083      		st Z,r18
 8559               		.stabn	68,0,609,.LM933-.LFBB82
 8560               	.LM933:
 8561 2660 89E4      		ldi r24,lo8(73)
 8562 2662 90E0      		ldi r25,0
 8563               		.stabn	68,0,609,.LM934-.LFBB82
 8564               	.LM934:
 8565 2664 26E0      		ldi r18,lo8(6)
 8566 2666 FC01      		movw r30,r24
 8567 2668 2083      		st Z,r18
 8568               		.stabn	68,0,611,.LM935-.LFBB82
 8569               	.LM935:
 8570 266a 0000      		nop
 8571               	.L373:
 8572               		.stabn	68,0,611,.LM936-.LFBB82
 8573               	.LM936:
 8574 266c 89E4      		ldi r24,lo8(73)
 8575 266e 90E0      		ldi r25,0
 8576 2670 FC01      		movw r30,r24
 8577 2672 8081      		ld r24,Z
 8578 2674 882F      		mov r24,r24
 8579 2676 90E0      		ldi r25,0
 8580 2678 8170      		andi r24,1
 8581 267a 9927      		clr r25
 8582               		.stabn	68,0,611,.LM937-.LFBB82
 8583               	.LM937:
 8584 267c 892B      		or r24,r25
 8585 267e 01F0      		breq .L373
 8586               		.stabn	68,0,615,.LM938-.LFBB82
 8587               	.LM938:
 8588 2680 88ED      		ldi r24,lo8(-40)
 8589 2682 90E0      		ldi r25,0
 8590               		.stabn	68,0,615,.LM939-.LFBB82
 8591               	.LM939:
 8592 2684 20EA      		ldi r18,lo8(-96)
 8593 2686 FC01      		movw r30,r24
 8594 2688 2083      		st Z,r18
 8595               		.stabn	68,0,616,.LM940-.LFBB82
 8596               	.LM940:
 8597 268a 88ED      		ldi r24,lo8(-40)
 8598 268c 90E0      		ldi r25,0
 8599               		.stabn	68,0,616,.LM941-.LFBB82
 8600               	.LM941:
 8601 268e 20E8      		ldi r18,lo8(-128)
 8602 2690 FC01      		movw r30,r24
 8603 2692 2083      		st Z,r18
 8604               		.stabn	68,0,619,.LM942-.LFBB82
 8605               	.LM942:
 8606 2694 82EE      		ldi r24,lo8(-30)
 8607 2696 90E0      		ldi r25,0
GAS LISTING sboxnet2usb.s 			page 152


 8608               		.stabn	68,0,619,.LM943-.LFBB82
 8609               	.LM943:
 8610 2698 FC01      		movw r30,r24
 8611 269a 1082      		st Z,__zero_reg__
 8612               		.stabn	68,0,620,.LM944-.LFBB82
 8613               	.LM944:
 8614 269c 81EE      		ldi r24,lo8(-31)
 8615 269e 90E0      		ldi r25,0
 8616               		.stabn	68,0,620,.LM945-.LFBB82
 8617               	.LM945:
 8618 26a0 FC01      		movw r30,r24
 8619 26a2 1082      		st Z,__zero_reg__
 8620               		.stabn	68,0,625,.LM946-.LFBB82
 8621               	.LM946:
 8622 26a4 82EE      		ldi r24,lo8(-30)
 8623 26a6 90E0      		ldi r25,0
 8624               		.stabn	68,0,625,.LM947-.LFBB82
 8625               	.LM947:
 8626 26a8 29E0      		ldi r18,lo8(9)
 8627 26aa FC01      		movw r30,r24
 8628 26ac 2083      		st Z,r18
 8629               		.stabn	68,0,627,.LM948-.LFBB82
 8630               	.LM948:
 8631 26ae 80EE      		ldi r24,lo8(-32)
 8632 26b0 90E0      		ldi r25,0
 8633               		.stabn	68,0,627,.LM949-.LFBB82
 8634               	.LM949:
 8635 26b2 FC01      		movw r30,r24
 8636 26b4 1082      		st Z,__zero_reg__
 8637               		.stabn	68,0,629,.LM950-.LFBB82
 8638               	.LM950:
 8639 26b6 8981      		ldd r24,Y+1
 8640 26b8 9A81      		ldd r25,Y+2
 8641 26ba 24E0      		ldi r18,lo8(4)
 8642 26bc FC01      		movw r30,r24
 8643 26be 2083      		st Z,r18
 8644               		.stabn	68,0,635,.LM951-.LFBB82
 8645               	.LM951:
 8646 26c0 0000      		nop
 8647               	/* epilogue start */
 8648 26c2 2D96      		adiw r28,13
 8649 26c4 0FB6      		in __tmp_reg__,__SREG__
 8650 26c6 F894      		cli
 8651 26c8 DEBF      		out __SP_H__,r29
 8652 26ca 0FBE      		out __SREG__,__tmp_reg__
 8653 26cc CDBF      		out __SP_L__,r28
 8654 26ce DF91      		pop r29
 8655 26d0 CF91      		pop r28
 8656 26d2 0F91      		pop r16
 8657 26d4 FF90      		pop r15
 8658 26d6 EF90      		pop r14
 8659 26d8 CF90      		pop r12
 8660 26da 0895      		ret
 8661               		.size	usb_init, .-usb_init
 8662               		.stabs	"dev:(0,65)",128,0,592,1
 8663               		.stabn	192,0,0,.LFBB82-.LFBB82
 8664               		.stabn	224,0,0,.Lscope82-.LFBB82
GAS LISTING sboxnet2usb.s 			page 153


 8665               	.Lscope82:
 8666               		.stabs	"",36,0,0,.Lscope82-.LFBB82
 8667               		.stabd	78,0,0
 8668               	.global	eeprom
 8669               		.section	.eeprom,"aw",@progbits
 8670               		.type	eeprom, @object
 8671               		.size	eeprom, 66
 8672               	eeprom:
 8673 0000 0000 0000 		.zero	66
 8673      0000 0000 
 8673      0000 0000 
 8673      0000 0000 
 8673      0000 0000 
 8674               	.global	g_device_desc_P
 8675               		.section	.progmem.data,"a",@progbits
 8676               		.type	g_device_desc_P, @object
 8677               		.size	g_device_desc_P, 18
 8678               	g_device_desc_P:
 8679 0000 12        		.byte	18
 8680 0001 01        		.byte	1
 8681 0002 1001      		.word	272
 8682 0004 FF        		.byte	-1
 8683 0005 FF        		.byte	-1
 8684 0006 FF        		.byte	-1
 8685 0007 40        		.byte	64
 8686 0008 23F1      		.word	-3805
 8687 000a 02A0      		.word	-24574
 8688 000c 0101      		.word	257
 8689 000e 01        		.byte	1
 8690 000f 02        		.byte	2
 8691 0010 03        		.byte	3
 8692 0011 01        		.byte	1
 8693               	.global	g_config_1_P
 8694               		.type	g_config_1_P, @object
 8695               		.size	g_config_1_P, 18
 8696               	g_config_1_P:
 8697 0012 09        		.byte	9
 8698 0013 02        		.byte	2
 8699 0014 1200      		.word	18
 8700 0016 01        		.byte	1
 8701 0017 01        		.byte	1
 8702 0018 00        		.byte	0
 8703 0019 80        		.byte	-128
 8704 001a 19        		.byte	25
 8705 001b 09        		.byte	9
 8706 001c 04        		.byte	4
 8707 001d 00        		.byte	0
 8708 001e 00        		.byte	0
 8709 001f 00        		.byte	0
 8710 0020 FF        		.byte	-1
 8711 0021 FF        		.byte	-1
 8712 0022 FF        		.byte	-1
 8713 0023 00        		.byte	0
 8714               	.global	g_string0_P
 8715               		.type	g_string0_P, @object
 8716               		.size	g_string0_P, 4
 8717               	g_string0_P:
GAS LISTING sboxnet2usb.s 			page 154


 8718 0024 04        		.byte	4
 8719 0025 03        		.byte	3
 8720 0026 0904      		.word	1033
 8721               	.global	g_string1_P
 8722               		.type	g_string1_P, @object
 8723               		.size	g_string1_P, 70
 8724               	g_string1_P:
 8725 0028 44        		.byte	68
 8726 0029 03        		.byte	3
 8727 002a 5400      		.string	"T"
 8728 002c 6800      		.string	"h"
 8729 002e 6F00      		.string	"o"
 8730 0030 6D00      		.string	"m"
 8731 0032 6100      		.string	"a"
 8732 0034 7300      		.string	"s"
 8733 0036 2000      		.string	" "
 8734 0038 4D00      		.string	"M"
 8735 003a 6100      		.string	"a"
 8736 003c 6900      		.string	"i"
 8737 003e 6500      		.string	"e"
 8738 0040 7200      		.string	"r"
 8739 0042 2000      		.string	" "
 8740 0044 3C00      		.string	"<"
 8741 0046 6200      		.string	"b"
 8742 0048 6100      		.string	"a"
 8743 004a 6C00      		.string	"l"
 8744 004c 6100      		.string	"a"
 8745 004e 6700      		.string	"g"
 8746 0050 6900      		.string	"i"
 8747 0052 4000      		.string	"@"
 8748 0054 6A00      		.string	"j"
 8749 0056 7500      		.string	"u"
 8750 0058 7300      		.string	"s"
 8751 005a 7400      		.string	"t"
 8752 005c 6D00      		.string	"m"
 8753 005e 6100      		.string	"a"
 8754 0060 6900      		.string	"i"
 8755 0062 6C00      		.string	"l"
 8756 0064 2E00      		.string	"."
 8757 0066 6400      		.string	"d"
 8758 0068 6500      		.string	"e"
 8759 006a 3E00      		.string	">"
 8760 006c 00        		.string	""
 8761 006d 00        		.string	""
 8762               	.global	g_string2_P
 8763               		.type	g_string2_P, @object
 8764               		.size	g_string2_P, 26
 8765               	g_string2_P:
 8766 006e 18        		.byte	24
 8767 006f 03        		.byte	3
 8768 0070 7300      		.string	"s"
 8769 0072 6200      		.string	"b"
 8770 0074 6F00      		.string	"o"
 8771 0076 7800      		.string	"x"
 8772 0078 6E00      		.string	"n"
 8773 007a 6500      		.string	"e"
 8774 007c 7400      		.string	"t"
GAS LISTING sboxnet2usb.s 			page 155


 8775 007e 3200      		.string	"2"
 8776 0080 7500      		.string	"u"
 8777 0082 7300      		.string	"s"
 8778 0084 6200      		.string	"b"
 8779 0086 00        		.string	""
 8780 0087 00        		.string	""
 8781               	.global	g_strings_P
 8782               		.type	g_strings_P, @object
 8783               		.size	g_strings_P, 6
 8784               	g_strings_P:
 8785 0088 0000      		.word	g_string0_P
 8786 008a 0000      		.word	g_string1_P
 8787 008c 0000      		.word	g_string2_P
 8788               		.text
 8789               		.stabs	"get_string:F(2,2)",36,0,254,get_string
 8790               		.stabs	"req:p(0,61)",160,0,254,1
 8791               		.stabs	"idx:p(2,2)",160,0,254,3
 8792               	.global	get_string
 8793               		.type	get_string, @function
 8794               	get_string:
 8795               		.stabd	46,0,0
 8796               		.stabs	"sboxnet2usb.c",132,0,0,.Ltext8
 8797               	.Ltext8:
 8798               		.stabn	68,0,254,.LM952-.LFBB83
 8799               	.LM952:
 8800               	.LFBB83:
 8801 26dc 0F93      		push r16
 8802 26de 1F93      		push r17
 8803 26e0 CF93      		push r28
 8804 26e2 DF93      		push r29
 8805 26e4 00D0      		rcall .
 8806 26e6 1F92      		push __zero_reg__
 8807 26e8 CDB7      		in r28,__SP_L__
 8808 26ea DEB7      		in r29,__SP_H__
 8809               	/* prologue: function */
 8810               	/* frame size = 3 */
 8811               	/* stack size = 7 */
 8812               	.L__stack_usage = 7
 8813 26ec 9A83      		std Y+2,r25
 8814 26ee 8983      		std Y+1,r24
 8815 26f0 6B83      		std Y+3,r22
 8816               		.stabn	68,0,255,.LM953-.LFBB83
 8817               	.LM953:
 8818 26f2 8B81      		ldd r24,Y+3
 8819 26f4 8330      		cpi r24,lo8(3)
 8820 26f6 01F4      		brne .L375
 8821               		.stabn	68,0,256,.LM954-.LFBB83
 8822               	.LM954:
 8823 26f8 0E94 0000 		call usb_ep_clearSETUP
 8824               		.stabn	68,0,257,.LM955-.LFBB83
 8825               	.LM955:
 8826 26fc 8981      		ldd r24,Y+1
 8827 26fe 9A81      		ldd r25,Y+2
 8828 2700 FC01      		movw r30,r24
 8829 2702 0681      		ldd r16,Z+6
 8830 2704 1781      		ldd r17,Z+7
 8831 2706 62E0      		ldi r22,lo8(2)
GAS LISTING sboxnet2usb.s 			page 156


 8832 2708 80E0      		ldi r24,lo8(eeprom)
 8833 270a 90E0      		ldi r25,hi8(eeprom)
 8834 270c 0E94 0000 		call usb_mem_read_byte
 8835 2710 882F      		mov r24,r24
 8836 2712 90E0      		ldi r25,0
 8837 2714 9801      		movw r18,r16
 8838 2716 42E0      		ldi r20,lo8(2)
 8839 2718 BC01      		movw r22,r24
 8840 271a 80E0      		ldi r24,lo8(eeprom)
 8841 271c 90E0      		ldi r25,hi8(eeprom)
 8842 271e 0E94 0000 		call usb_ep_send_control_data
 8843               		.stabn	68,0,259,.LM956-.LFBB83
 8844               	.LM956:
 8845 2722 80E0      		ldi r24,0
 8846 2724 00C0      		rjmp .L376
 8847               	.L375:
 8848               		.stabn	68,0,261,.LM957-.LFBB83
 8849               	.LM957:
 8850 2726 81E0      		ldi r24,lo8(1)
 8851               	.L376:
 8852               	/* epilogue start */
 8853               		.stabn	68,0,262,.LM958-.LFBB83
 8854               	.LM958:
 8855 2728 0F90      		pop __tmp_reg__
 8856 272a 0F90      		pop __tmp_reg__
 8857 272c 0F90      		pop __tmp_reg__
 8858 272e DF91      		pop r29
 8859 2730 CF91      		pop r28
 8860 2732 1F91      		pop r17
 8861 2734 0F91      		pop r16
 8862 2736 0895      		ret
 8863               		.size	get_string, .-get_string
 8864               	.Lscope83:
 8865               		.stabs	"",36,0,0,.Lscope83-.LFBB83
 8866               		.stabd	78,0,0
 8867               		.stabs	"usb_event_set_configuration:F(0,49)",36,0,264,usb_event_set_configuration
 8868               	.global	usb_event_set_configuration
 8869               		.type	usb_event_set_configuration, @function
 8870               	usb_event_set_configuration:
 8871               		.stabd	46,0,0
 8872               		.stabn	68,0,264,.LM959-.LFBB84
 8873               	.LM959:
 8874               	.LFBB84:
 8875 2738 CF93      		push r28
 8876 273a DF93      		push r29
 8877 273c CDB7      		in r28,__SP_L__
 8878 273e DEB7      		in r29,__SP_H__
 8879               	/* prologue: function */
 8880               	/* frame size = 0 */
 8881               	/* stack size = 2 */
 8882               	.L__stack_usage = 2
 8883               		.stabn	68,0,265,.LM960-.LFBB84
 8884               	.LM960:
 8885 2740 0000      		nop
 8886               	/* epilogue start */
 8887 2742 DF91      		pop r29
 8888 2744 CF91      		pop r28
GAS LISTING sboxnet2usb.s 			page 157


 8889 2746 0895      		ret
 8890               		.size	usb_event_set_configuration, .-usb_event_set_configuration
 8891               	.Lscope84:
 8892               		.stabs	"",36,0,0,.Lscope84-.LFBB84
 8893               		.stabd	78,0,0
 8894               		.stabs	"get_status:f(2,2)",36,0,267,get_status
 8895               		.type	get_status, @function
 8896               	get_status:
 8897               		.stabd	46,0,0
 8898               		.stabn	68,0,267,.LM961-.LFBB85
 8899               	.LM961:
 8900               	.LFBB85:
 8901 2748 CF93      		push r28
 8902 274a DF93      		push r29
 8903 274c 00D0      		rcall .
 8904 274e CDB7      		in r28,__SP_L__
 8905 2750 DEB7      		in r29,__SP_H__
 8906               	/* prologue: function */
 8907               	/* frame size = 2 */
 8908               	/* stack size = 4 */
 8909               	.L__stack_usage = 4
 8910               		.stabn	68,0,268,.LM962-.LFBB85
 8911               	.LM962:
 8912 2752 8091 0000 		lds r24,g_sboxnet_status
 8913 2756 882F      		mov r24,r24
 8914 2758 90E0      		ldi r25,0
 8915 275a 9A83      		std Y+2,r25
 8916 275c 8983      		std Y+1,r24
 8917               		.stabn	68,0,269,.LM963-.LFBB85
 8918               	.LM963:
 8919 275e 1092 0000 		sts g_sboxnet_status,__zero_reg__
 8920               		.stabn	68,0,270,.LM964-.LFBB85
 8921               	.LM964:
 8922 2762 0E94 0000 		call sboxnet_can_read
 8923 2766 8823      		tst r24
 8924 2768 01F0      		breq .L379
 8925               		.stabn	68,0,271,.LM965-.LFBB85
 8926               	.LM965:
 8927 276a 8981      		ldd r24,Y+1
 8928 276c 9A81      		ldd r25,Y+2
 8929 276e 8260      		ori r24,2
 8930 2770 9A83      		std Y+2,r25
 8931 2772 8983      		std Y+1,r24
 8932               	.L379:
 8933               		.stabn	68,0,273,.LM966-.LFBB85
 8934               	.LM966:
 8935 2774 0E94 0000 		call sboxnet_can_send
 8936 2778 8823      		tst r24
 8937 277a 01F0      		breq .L380
 8938               		.stabn	68,0,274,.LM967-.LFBB85
 8939               	.LM967:
 8940 277c 8981      		ldd r24,Y+1
 8941 277e 9A81      		ldd r25,Y+2
 8942 2780 8061      		ori r24,16
 8943 2782 9A83      		std Y+2,r25
 8944 2784 8983      		std Y+1,r24
 8945               	.L380:
GAS LISTING sboxnet2usb.s 			page 158


 8946               		.stabn	68,0,276,.LM968-.LFBB85
 8947               	.LM968:
 8948 2786 8981      		ldd r24,Y+1
 8949               	/* epilogue start */
 8950               		.stabn	68,0,277,.LM969-.LFBB85
 8951               	.LM969:
 8952 2788 0F90      		pop __tmp_reg__
 8953 278a 0F90      		pop __tmp_reg__
 8954 278c DF91      		pop r29
 8955 278e CF91      		pop r28
 8956 2790 0895      		ret
 8957               		.size	get_status, .-get_status
 8958               		.stabs	"st:(2,4)",128,0,268,1
 8959               		.stabn	192,0,0,.LFBB85-.LFBB85
 8960               		.stabn	224,0,0,.Lscope85-.LFBB85
 8961               	.Lscope85:
 8962               		.stabs	"",36,0,0,.Lscope85-.LFBB85
 8963               		.stabd	78,0,0
 8964               		.stabs	"usb_event_ep0_request:F(2,2)",36,0,279,usb_event_ep0_request
 8965               		.stabs	"req:p(0,61)",160,0,279,87
 8966               	.global	usb_event_ep0_request
 8967               		.type	usb_event_ep0_request, @function
 8968               	usb_event_ep0_request:
 8969               		.stabd	46,0,0
 8970               		.stabn	68,0,279,.LM970-.LFBB86
 8971               	.LM970:
 8972               	.LFBB86:
 8973 2792 CF93      		push r28
 8974 2794 DF93      		push r29
 8975 2796 CDB7      		in r28,__SP_L__
 8976 2798 DEB7      		in r29,__SP_H__
 8977 279a C855      		subi r28,88
 8978 279c D109      		sbc r29,__zero_reg__
 8979 279e 0FB6      		in __tmp_reg__,__SREG__
 8980 27a0 F894      		cli
 8981 27a2 DEBF      		out __SP_H__,r29
 8982 27a4 0FBE      		out __SREG__,__tmp_reg__
 8983 27a6 CDBF      		out __SP_L__,r28
 8984               	/* prologue: function */
 8985               	/* frame size = 88 */
 8986               	/* stack size = 90 */
 8987               	.L__stack_usage = 90
 8988 27a8 9E01      		movw r18,r28
 8989 27aa 295A      		subi r18,-87
 8990 27ac 3F4F      		sbci r19,-1
 8991 27ae F901      		movw r30,r18
 8992 27b0 9183      		std Z+1,r25
 8993 27b2 8083      		st Z,r24
 8994               		.stabn	68,0,280,.LM971-.LFBB86
 8995               	.LM971:
 8996 27b4 CE01      		movw r24,r28
 8997 27b6 895A      		subi r24,-87
 8998 27b8 9F4F      		sbci r25,-1
 8999 27ba FC01      		movw r30,r24
 9000 27bc 8081      		ld r24,Z
 9001 27be 9181      		ldd r25,Z+1
 9002 27c0 FC01      		movw r30,r24
GAS LISTING sboxnet2usb.s 			page 159


 9003 27c2 8081      		ld r24,Z
 9004 27c4 882F      		mov r24,r24
 9005 27c6 90E0      		ldi r25,0
 9006 27c8 8F77      		andi r24,127
 9007 27ca 9927      		clr r25
 9008 27cc 8134      		cpi r24,65
 9009 27ce 9105      		cpc r25,__zero_reg__
 9010 27d0 01F0      		breq .L383
 9011               		.stabn	68,0,281,.LM972-.LFBB86
 9012               	.LM972:
 9013 27d2 81E0      		ldi r24,lo8(1)
 9014 27d4 00C0      		rjmp .L384
 9015               	.L383:
 9016               		.stabn	68,0,283,.LM973-.LFBB86
 9017               	.LM973:
 9018 27d6 CE01      		movw r24,r28
 9019 27d8 895A      		subi r24,-87
 9020 27da 9F4F      		sbci r25,-1
 9021 27dc FC01      		movw r30,r24
 9022 27de 8081      		ld r24,Z
 9023 27e0 9181      		ldd r25,Z+1
 9024 27e2 FC01      		movw r30,r24
 9025 27e4 8181      		ldd r24,Z+1
 9026 27e6 882F      		mov r24,r24
 9027 27e8 90E0      		ldi r25,0
 9028 27ea 8A33      		cpi r24,58
 9029 27ec 9105      		cpc r25,__zero_reg__
 9030 27ee 01F4      		brne .+2
 9031 27f0 00C0      		rjmp .L386
 9032 27f2 8B33      		cpi r24,59
 9033 27f4 9105      		cpc r25,__zero_reg__
 9034 27f6 04F4      		brge .L387
 9035 27f8 8133      		cpi r24,49
 9036 27fa 9105      		cpc r25,__zero_reg__
 9037 27fc 01F4      		brne .+2
 9038 27fe 00C0      		rjmp .L388
 9039 2800 8233      		cpi r24,50
 9040 2802 9105      		cpc r25,__zero_reg__
 9041 2804 04F4      		brge .L389
 9042 2806 C097      		sbiw r24,48
 9043 2808 01F0      		breq .L390
 9044               		.stabn	68,0,442,.LM974-.LFBB86
 9045               	.LM974:
 9046 280a 00C0      		rjmp .L422
 9047               	.L389:
 9048               		.stabn	68,0,283,.LM975-.LFBB86
 9049               	.LM975:
 9050 280c 8233      		cpi r24,50
 9051 280e 9105      		cpc r25,__zero_reg__
 9052 2810 01F4      		brne .+2
 9053 2812 00C0      		rjmp .L391
 9054 2814 C397      		sbiw r24,51
 9055 2816 01F4      		brne .+2
 9056 2818 00C0      		rjmp .L392
 9057               		.stabn	68,0,442,.LM976-.LFBB86
 9058               	.LM976:
 9059 281a 00C0      		rjmp .L422
GAS LISTING sboxnet2usb.s 			page 160


 9060               	.L387:
 9061               		.stabn	68,0,283,.LM977-.LFBB86
 9062               	.LM977:
 9063 281c 8D33      		cpi r24,61
 9064 281e 9105      		cpc r25,__zero_reg__
 9065 2820 01F4      		brne .+2
 9066 2822 00C0      		rjmp .L393
 9067 2824 8E33      		cpi r24,62
 9068 2826 9105      		cpc r25,__zero_reg__
 9069 2828 04F4      		brge .L394
 9070 282a 8B33      		cpi r24,59
 9071 282c 9105      		cpc r25,__zero_reg__
 9072 282e 01F4      		brne .+2
 9073 2830 00C0      		rjmp .L395
 9074 2832 CC97      		sbiw r24,60
 9075 2834 01F4      		brne .+2
 9076 2836 00C0      		rjmp .L396
 9077               		.stabn	68,0,442,.LM978-.LFBB86
 9078               	.LM978:
 9079 2838 00C0      		rjmp .L422
 9080               	.L394:
 9081               		.stabn	68,0,283,.LM979-.LFBB86
 9082               	.LM979:
 9083 283a 8034      		cpi r24,64
 9084 283c 9105      		cpc r25,__zero_reg__
 9085 283e 01F4      		brne .+2
 9086 2840 00C0      		rjmp .L397
 9087 2842 8135      		cpi r24,81
 9088 2844 9105      		cpc r25,__zero_reg__
 9089 2846 01F4      		brne .+2
 9090 2848 00C0      		rjmp .L398
 9091               		.stabn	68,0,442,.LM980-.LFBB86
 9092               	.LM980:
 9093 284a 00C0      		rjmp .L422
 9094               	.L390:
 9095               		.stabn	68,0,285,.LM981-.LFBB86
 9096               	.LM981:
 9097 284c 0E94 0000 		call usb_ep_clearSETUP
 9098               	.LBB47:
 9099               		.stabn	68,0,286,.LM982-.LFBB86
 9100               	.LM982:
 9101 2850 8FE5      		ldi r24,lo8(95)
 9102 2852 90E0      		ldi r25,0
 9103 2854 FC01      		movw r30,r24
 9104 2856 8081      		ld r24,Z
 9105 2858 8E83      		std Y+6,r24
 9106 285a 0E94 0000 		call __iCliRetVal
 9107 285e 8983      		std Y+1,r24
 9108 2860 00C0      		rjmp .L399
 9109               	.L404:
 9110               		.stabn	68,0,287,.LM983-.LFBB86
 9111               	.LM983:
 9112 2862 CE01      		movw r24,r28
 9113 2864 895A      		subi r24,-87
 9114 2866 9F4F      		sbci r25,-1
 9115 2868 FC01      		movw r30,r24
 9116 286a 8081      		ld r24,Z
GAS LISTING sboxnet2usb.s 			page 161


 9117 286c 9181      		ldd r25,Z+1
 9118 286e FC01      		movw r30,r24
 9119 2870 8281      		ldd r24,Z+2
 9120 2872 9381      		ldd r25,Z+3
 9121 2874 8078      		andi r24,128
 9122 2876 9927      		clr r25
 9123 2878 892B      		or r24,r25
 9124 287a 01F0      		breq .L400
 9125               		.stabn	68,0,288,.LM984-.LFBB86
 9126               	.LM984:
 9127               	/* #APP */
 9128               	 ;  288 "sboxnet2usb.c" 1
 9129 287c A895      		wdr
 9130               	 ;  0 "" 2
 9131               		.stabn	68,0,292,.LM985-.LFBB86
 9132               	.LM985:
 9133               	/* #NOAPP */
 9134 287e 80E6      		ldi r24,lo8(96)
 9135 2880 90E0      		ldi r25,0
 9136               		.stabn	68,0,292,.LM986-.LFBB86
 9137               	.LM986:
 9138 2882 28E1      		ldi r18,lo8(24)
 9139 2884 FC01      		movw r30,r24
 9140 2886 2083      		st Z,r18
 9141               		.stabn	68,0,293,.LM987-.LFBB86
 9142               	.LM987:
 9143 2888 80E6      		ldi r24,lo8(96)
 9144 288a 90E0      		ldi r25,0
 9145               		.stabn	68,0,293,.LM988-.LFBB86
 9146               	.LM988:
 9147 288c 2CE0      		ldi r18,lo8(12)
 9148 288e FC01      		movw r30,r24
 9149 2890 2083      		st Z,r18
 9150 2892 00C0      		rjmp .L401
 9151               	.L400:
 9152               		.stabn	68,0,295,.LM989-.LFBB86
 9153               	.LM989:
 9154 2894 CE01      		movw r24,r28
 9155 2896 895A      		subi r24,-87
 9156 2898 9F4F      		sbci r25,-1
 9157 289a FC01      		movw r30,r24
 9158 289c 8081      		ld r24,Z
 9159 289e 9181      		ldd r25,Z+1
 9160 28a0 FC01      		movw r30,r24
 9161 28a2 8281      		ldd r24,Z+2
 9162 28a4 9381      		ldd r25,Z+3
 9163 28a6 8170      		andi r24,1
 9164 28a8 9927      		clr r25
 9165 28aa 892B      		or r24,r25
 9166 28ac 01F0      		breq .L402
 9167               		.stabn	68,0,296,.LM990-.LFBB86
 9168               	.LM990:
 9169 28ae CE01      		movw r24,r28
 9170 28b0 895A      		subi r24,-87
 9171 28b2 9F4F      		sbci r25,-1
 9172 28b4 FC01      		movw r30,r24
 9173 28b6 8081      		ld r24,Z
GAS LISTING sboxnet2usb.s 			page 162


 9174 28b8 9181      		ldd r25,Z+1
 9175 28ba FC01      		movw r30,r24
 9176 28bc 8481      		ldd r24,Z+4
 9177 28be 9581      		ldd r25,Z+5
 9178 28c0 8093 0000 		sts g_sboxnet_addr,r24
 9179               		.stabn	68,0,297,.LM991-.LFBB86
 9180               	.LM991:
 9181 28c4 8091 0000 		lds r24,g_sboxnet_flags
 9182 28c8 882F      		mov r24,r24
 9183 28ca 90E0      		ldi r25,0
 9184 28cc 8170      		andi r24,1
 9185 28ce 9927      		clr r25
 9186 28d0 892B      		or r24,r25
 9187 28d2 01F4      		brne .L403
 9188               		.stabn	68,0,298,.LM992-.LFBB86
 9189               	.LM992:
 9190 28d4 0E94 0000 		call sboxnet_init
 9191               		.stabn	68,0,299,.LM993-.LFBB86
 9192               	.LM993:
 9193 28d8 8091 0000 		lds r24,g_sboxnet_flags
 9194 28dc 8160      		ori r24,lo8(1)
 9195 28de 8093 0000 		sts g_sboxnet_flags,r24
 9196               	.L403:
 9197               		.stabn	68,0,301,.LM994-.LFBB86
 9198               	.LM994:
 9199 28e2 CE01      		movw r24,r28
 9200 28e4 895A      		subi r24,-87
 9201 28e6 9F4F      		sbci r25,-1
 9202 28e8 FC01      		movw r30,r24
 9203 28ea 8081      		ld r24,Z
 9204 28ec 9181      		ldd r25,Z+1
 9205 28ee FC01      		movw r30,r24
 9206 28f0 8281      		ldd r24,Z+2
 9207 28f2 9381      		ldd r25,Z+3
 9208 28f4 8270      		andi r24,lo8(2)
 9209 28f6 0E94 0000 		call sboxnet_set_sniffer_mode
 9210 28fa 00C0      		rjmp .L401
 9211               	.L402:
 9212               		.stabn	68,0,303,.LM995-.LFBB86
 9213               	.LM995:
 9214 28fc 8091 0000 		lds r24,g_sboxnet_flags
 9215 2900 882F      		mov r24,r24
 9216 2902 90E0      		ldi r25,0
 9217 2904 8170      		andi r24,1
 9218 2906 9927      		clr r25
 9219 2908 892B      		or r24,r25
 9220 290a 01F0      		breq .L401
 9221               		.stabn	68,0,304,.LM996-.LFBB86
 9222               	.LM996:
 9223 290c 0E94 0000 		call sboxnet_deinit
 9224               		.stabn	68,0,305,.LM997-.LFBB86
 9225               	.LM997:
 9226 2910 8091 0000 		lds r24,g_sboxnet_flags
 9227 2914 8E7F      		andi r24,lo8(-2)
 9228 2916 8093 0000 		sts g_sboxnet_flags,r24
 9229               	.L401:
 9230               		.stabn	68,0,286,.LM998-.LFBB86
GAS LISTING sboxnet2usb.s 			page 163


 9231               	.LM998:
 9232 291a 1982      		std Y+1,__zero_reg__
 9233               	.L399:
 9234               		.stabn	68,0,286,.LM999-.LFBB86
 9235               	.LM999:
 9236 291c 8981      		ldd r24,Y+1
 9237 291e 8823      		tst r24
 9238 2920 01F0      		breq .+2
 9239 2922 00C0      		rjmp .L404
 9240               		.stabn	68,0,286,.LM1000-.LFBB86
 9241               	.LM1000:
 9242 2924 CE01      		movw r24,r28
 9243 2926 0696      		adiw r24,6
 9244 2928 0E94 0000 		call __iRestore
 9245               	.LBE47:
 9246               		.stabn	68,0,309,.LM1001-.LFBB86
 9247               	.LM1001:
 9248 292c 0E94 0000 		call usb_ep_send_zlp
 9249               		.stabn	68,0,310,.LM1002-.LFBB86
 9250               	.LM1002:
 9251 2930 80E0      		ldi r24,0
 9252 2932 00C0      		rjmp .L384
 9253               	.L388:
 9254               	.LBB48:
 9255               		.stabn	68,0,314,.LM1003-.LFBB86
 9256               	.LM1003:
 9257 2934 0E94 0000 		call usb_ep_clearSETUP
 9258               		.stabn	68,0,315,.LM1004-.LFBB86
 9259               	.LM1004:
 9260 2938 0E94 0000 		call get_status
 9261 293c 8F83      		std Y+7,r24
 9262               		.stabn	68,0,316,.LM1005-.LFBB86
 9263               	.LM1005:
 9264 293e CE01      		movw r24,r28
 9265 2940 895A      		subi r24,-87
 9266 2942 9F4F      		sbci r25,-1
 9267 2944 FC01      		movw r30,r24
 9268 2946 8081      		ld r24,Z
 9269 2948 9181      		ldd r25,Z+1
 9270 294a FC01      		movw r30,r24
 9271 294c 2681      		ldd r18,Z+6
 9272 294e 3781      		ldd r19,Z+7
 9273 2950 CE01      		movw r24,r28
 9274 2952 0796      		adiw r24,7
 9275 2954 40E0      		ldi r20,0
 9276 2956 61E0      		ldi r22,lo8(1)
 9277 2958 70E0      		ldi r23,0
 9278 295a 0E94 0000 		call usb_ep_send_control_data
 9279               		.stabn	68,0,317,.LM1006-.LFBB86
 9280               	.LM1006:
 9281 295e 80E0      		ldi r24,0
 9282 2960 00C0      		rjmp .L384
 9283               	.L391:
 9284               	.LBE48:
 9285               	.LBB49:
 9286               		.stabn	68,0,321,.LM1007-.LFBB86
 9287               	.LM1007:
GAS LISTING sboxnet2usb.s 			page 164


 9288 2962 0E94 0000 		call usb_ep_clearSETUP
 9289               		.stabn	68,0,323,.LM1008-.LFBB86
 9290               	.LM1008:
 9291 2966 CE01      		movw r24,r28
 9292 2968 895A      		subi r24,-87
 9293 296a 9F4F      		sbci r25,-1
 9294 296c FC01      		movw r30,r24
 9295 296e 8081      		ld r24,Z
 9296 2970 9181      		ldd r25,Z+1
 9297 2972 FC01      		movw r30,r24
 9298 2974 8681      		ldd r24,Z+6
 9299 2976 9781      		ldd r25,Z+7
 9300 2978 9B83      		std Y+3,r25
 9301 297a 8A83      		std Y+2,r24
 9302               		.stabn	68,0,324,.LM1009-.LFBB86
 9303               	.LM1009:
 9304 297c 1C82      		std Y+4,__zero_reg__
 9305               		.stabn	68,0,328,.LM1010-.LFBB86
 9306               	.LM1010:
 9307 297e 8A81      		ldd r24,Y+2
 9308 2980 9B81      		ldd r25,Y+3
 9309 2982 892B      		or r24,r25
 9310 2984 01F0      		breq .L405
 9311               		.stabn	68,0,329,.LM1011-.LFBB86
 9312               	.LM1011:
 9313 2986 8A81      		ldd r24,Y+2
 9314 2988 9B81      		ldd r25,Y+3
 9315 298a 0197      		sbiw r24,1
 9316 298c 9B83      		std Y+3,r25
 9317 298e 8A83      		std Y+2,r24
 9318               		.stabn	68,0,330,.LM1012-.LFBB86
 9319               	.LM1012:
 9320 2990 0E94 0000 		call get_status
 9321 2994 8887      		std Y+8,r24
 9322               		.stabn	68,0,331,.LM1013-.LFBB86
 9323               	.LM1013:
 9324 2996 CE01      		movw r24,r28
 9325 2998 0896      		adiw r24,8
 9326 299a 40E0      		ldi r20,0
 9327 299c 61E0      		ldi r22,lo8(1)
 9328 299e 70E0      		ldi r23,0
 9329 29a0 0E94 0000 		call usb_ep_send_control_data_chunk
 9330 29a4 8C83      		std Y+4,r24
 9331               	.L405:
 9332               		.stabn	68,0,334,.LM1014-.LFBB86
 9333               	.LM1014:
 9334 29a6 8C81      		ldd r24,Y+4
 9335 29a8 8823      		tst r24
 9336 29aa 01F0      		breq .+2
 9337 29ac 00C0      		rjmp .L406
 9338               		.stabn	68,0,335,.LM1015-.LFBB86
 9339               	.LM1015:
 9340 29ae 00C0      		rjmp .L407
 9341               	.L413:
 9342               	.LBB50:
 9343               		.stabn	68,0,340,.LM1016-.LFBB86
 9344               	.LM1016:
GAS LISTING sboxnet2usb.s 			page 165


 9345 29b0 85E4      		ldi r24,lo8(69)
 9346 29b2 8D83      		std Y+5,r24
 9347               		.stabn	68,0,341,.LM1017-.LFBB86
 9348               	.LM1017:
 9349 29b4 8A81      		ldd r24,Y+2
 9350 29b6 9B81      		ldd r25,Y+3
 9351 29b8 8130      		cpi r24,1
 9352 29ba 9140      		sbci r25,1
 9353 29bc 00F4      		brsh .L408
 9354               		.stabn	68,0,342,.LM1018-.LFBB86
 9355               	.LM1018:
 9356 29be 8A81      		ldd r24,Y+2
 9357 29c0 8150      		subi r24,lo8(-(-1))
 9358 29c2 8D83      		std Y+5,r24
 9359               	.L408:
 9360               		.stabn	68,0,344,.LM1019-.LFBB86
 9361               	.LM1019:
 9362 29c4 CE01      		movw r24,r28
 9363 29c6 4196      		adiw r24,17
 9364 29c8 0196      		adiw r24,1
 9365 29ca 6D81      		ldd r22,Y+5
 9366 29cc 0E94 0000 		call sboxnet_receive_msg
 9367 29d0 898B      		std Y+17,r24
 9368               		.stabn	68,0,345,.LM1020-.LFBB86
 9369               	.LM1020:
 9370 29d2 8989      		ldd r24,Y+17
 9371 29d4 1816      		cp __zero_reg__,r24
 9372 29d6 04F4      		brge .L409
 9373               		.stabn	68,0,346,.LM1021-.LFBB86
 9374               	.LM1021:
 9375 29d8 8989      		ldd r24,Y+17
 9376 29da 082E      		mov __tmp_reg__,r24
 9377 29dc 000C      		lsl r0
 9378 29de 990B      		sbc r25,r25
 9379 29e0 2A81      		ldd r18,Y+2
 9380 29e2 3B81      		ldd r19,Y+3
 9381 29e4 A901      		movw r20,r18
 9382 29e6 481B      		sub r20,r24
 9383 29e8 590B      		sbc r21,r25
 9384 29ea CA01      		movw r24,r20
 9385 29ec 0197      		sbiw r24,1
 9386 29ee 9B83      		std Y+3,r25
 9387 29f0 8A83      		std Y+2,r24
 9388               		.stabn	68,0,347,.LM1022-.LFBB86
 9389               	.LM1022:
 9390 29f2 0E94 0000 		call trigger_led_msg_read
 9391               		.stabn	68,0,348,.LM1023-.LFBB86
 9392               	.LM1023:
 9393 29f6 8989      		ldd r24,Y+17
 9394 29f8 082E      		mov __tmp_reg__,r24
 9395 29fa 000C      		lsl r0
 9396 29fc 990B      		sbc r25,r25
 9397 29fe 0196      		adiw r24,1
 9398 2a00 9C01      		movw r18,r24
 9399 2a02 CE01      		movw r24,r28
 9400 2a04 4196      		adiw r24,17
 9401 2a06 40E0      		ldi r20,0
GAS LISTING sboxnet2usb.s 			page 166


 9402 2a08 B901      		movw r22,r18
 9403 2a0a 0E94 0000 		call usb_ep_send_control_data_chunk
 9404 2a0e 8C83      		std Y+4,r24
 9405               		.stabn	68,0,353,.LM1024-.LFBB86
 9406               	.LM1024:
 9407 2a10 8C81      		ldd r24,Y+4
 9408 2a12 8823      		tst r24
 9409 2a14 01F0      		breq .L407
 9410               		.stabn	68,0,354,.LM1025-.LFBB86
 9411               	.LM1025:
 9412 2a16 00C0      		rjmp .L406
 9413               	.L409:
 9414               		.stabn	68,0,350,.LM1026-.LFBB86
 9415               	.LM1026:
 9416 2a18 CE01      		movw r24,r28
 9417 2a1a 4196      		adiw r24,17
 9418 2a1c 40E0      		ldi r20,0
 9419 2a1e 61E0      		ldi r22,lo8(1)
 9420 2a20 70E0      		ldi r23,0
 9421 2a22 0E94 0000 		call usb_ep_send_control_data_chunk
 9422 2a26 8C83      		std Y+4,r24
 9423               		.stabn	68,0,351,.LM1027-.LFBB86
 9424               	.LM1027:
 9425 2a28 00C0      		rjmp .L406
 9426               	.L407:
 9427               	.LBE50:
 9428               		.stabn	68,0,335,.LM1028-.LFBB86
 9429               	.LM1028:
 9430 2a2a 8A81      		ldd r24,Y+2
 9431 2a2c 9B81      		ldd r25,Y+3
 9432 2a2e 0297      		sbiw r24,2
 9433 2a30 00F0      		brlo .+2
 9434 2a32 00C0      		rjmp .L413
 9435               	.L406:
 9436               		.stabn	68,0,358,.LM1029-.LFBB86
 9437               	.LM1029:
 9438 2a34 8C81      		ldd r24,Y+4
 9439 2a36 8823      		tst r24
 9440 2a38 01F4      		brne .L414
 9441               		.stabn	68,0,359,.LM1030-.LFBB86
 9442               	.LM1030:
 9443 2a3a 0E94 0000 		call usb_ep_send_control_data_finish
 9444               	.L414:
 9445               		.stabn	68,0,361,.LM1031-.LFBB86
 9446               	.LM1031:
 9447 2a3e 80E0      		ldi r24,0
 9448 2a40 00C0      		rjmp .L384
 9449               	.L392:
 9450               	.LBE49:
 9451               	.LBB51:
 9452               		.stabn	68,0,365,.LM1032-.LFBB86
 9453               	.LM1032:
 9454 2a42 0E94 0000 		call usb_ep_clearSETUP
 9455               		.stabn	68,0,368,.LM1033-.LFBB86
 9456               	.LM1033:
 9457 2a46 CE01      		movw r24,r28
 9458 2a48 895A      		subi r24,-87
GAS LISTING sboxnet2usb.s 			page 167


 9459 2a4a 9F4F      		sbci r25,-1
 9460 2a4c FC01      		movw r30,r24
 9461 2a4e 8081      		ld r24,Z
 9462 2a50 9181      		ldd r25,Z+1
 9463 2a52 FC01      		movw r30,r24
 9464 2a54 8681      		ldd r24,Z+6
 9465 2a56 9781      		ldd r25,Z+7
 9466 2a58 8634      		cpi r24,70
 9467 2a5a 9105      		cpc r25,__zero_reg__
 9468 2a5c 00F0      		brlo .L415
 9469 2a5e 85E4      		ldi r24,lo8(69)
 9470 2a60 90E0      		ldi r25,0
 9471               	.L415:
 9472 2a62 BE01      		movw r22,r28
 9473 2a64 675F      		subi r22,-9
 9474 2a66 7F4F      		sbci r23,-1
 9475 2a68 9E01      		movw r18,r28
 9476 2a6a 2F5E      		subi r18,-17
 9477 2a6c 3F4F      		sbci r19,-1
 9478 2a6e AC01      		movw r20,r24
 9479 2a70 C901      		movw r24,r18
 9480 2a72 0E94 0000 		call usb_ep_recv_control_data
 9481               		.stabn	68,0,369,.LM1034-.LFBB86
 9482               	.LM1034:
 9483 2a76 8985      		ldd r24,Y+9
 9484 2a78 9A85      		ldd r25,Y+10
 9485 2a7a 0597      		sbiw r24,5
 9486 2a7c 00F0      		brlo .L416
 9487               		.stabn	68,0,370,.LM1035-.LFBB86
 9488               	.LM1035:
 9489 2a7e CE01      		movw r24,r28
 9490 2a80 4196      		adiw r24,17
 9491 2a82 0E94 0000 		call sboxnet_can_send_msg
 9492 2a86 8823      		tst r24
 9493 2a88 01F0      		breq .L417
 9494               		.stabn	68,0,371,.LM1036-.LFBB86
 9495               	.LM1036:
 9496 2a8a 0E94 0000 		call trigger_led_msg_write
 9497               		.stabn	68,0,372,.LM1037-.LFBB86
 9498               	.LM1037:
 9499 2a8e CE01      		movw r24,r28
 9500 2a90 4196      		adiw r24,17
 9501 2a92 0E94 0000 		call sboxnet_send_msg
 9502 2a96 8823      		tst r24
 9503 2a98 01F0      		breq .L420
 9504               		.stabn	68,0,373,.LM1038-.LFBB86
 9505               	.LM1038:
 9506 2a9a 8091 0000 		lds r24,g_sboxnet_status
 9507 2a9e 8068      		ori r24,lo8(-128)
 9508 2aa0 8093 0000 		sts g_sboxnet_status,r24
 9509 2aa4 00C0      		rjmp .L420
 9510               	.L417:
 9511               		.stabn	68,0,375,.LM1039-.LFBB86
 9512               	.LM1039:
 9513 2aa6 8091 0000 		lds r24,g_sboxnet_status
 9514 2aaa 8064      		ori r24,lo8(64)
 9515 2aac 8093 0000 		sts g_sboxnet_status,r24
GAS LISTING sboxnet2usb.s 			page 168


 9516 2ab0 00C0      		rjmp .L420
 9517               	.L416:
 9518               		.stabn	68,0,378,.LM1040-.LFBB86
 9519               	.LM1040:
 9520 2ab2 8091 0000 		lds r24,g_sboxnet_status
 9521 2ab6 8062      		ori r24,lo8(32)
 9522 2ab8 8093 0000 		sts g_sboxnet_status,r24
 9523               	.L420:
 9524               		.stabn	68,0,380,.LM1041-.LFBB86
 9525               	.LM1041:
 9526 2abc 80E0      		ldi r24,0
 9527 2abe 00C0      		rjmp .L384
 9528               	.L386:
 9529               	.LBE51:
 9530               		.stabn	68,0,384,.LM1042-.LFBB86
 9531               	.LM1042:
 9532 2ac0 0E94 0000 		call usb_ep_clearSETUP
 9533               		.stabn	68,0,385,.LM1043-.LFBB86
 9534               	.LM1043:
 9535 2ac4 CE01      		movw r24,r28
 9536 2ac6 895A      		subi r24,-87
 9537 2ac8 9F4F      		sbci r25,-1
 9538 2aca FC01      		movw r30,r24
 9539 2acc 8081      		ld r24,Z
 9540 2ace 9181      		ldd r25,Z+1
 9541 2ad0 FC01      		movw r30,r24
 9542 2ad2 8681      		ldd r24,Z+6
 9543 2ad4 9781      		ldd r25,Z+7
 9544 2ad6 9C01      		movw r18,r24
 9545 2ad8 40E0      		ldi r20,0
 9546 2ada 66E2      		ldi r22,lo8(38)
 9547 2adc 70E0      		ldi r23,0
 9548 2ade 80E0      		ldi r24,lo8(g_sboxnet+525)
 9549 2ae0 90E0      		ldi r25,hi8(g_sboxnet+525)
 9550 2ae2 0E94 0000 		call usb_ep_send_control_data
 9551               		.stabn	68,0,386,.LM1044-.LFBB86
 9552               	.LM1044:
 9553 2ae6 80E0      		ldi r24,0
 9554 2ae8 00C0      		rjmp .L384
 9555               	.L395:
 9556               		.stabn	68,0,390,.LM1045-.LFBB86
 9557               	.LM1045:
 9558 2aea 0E94 0000 		call usb_ep_clearSETUP
 9559               		.stabn	68,0,391,.LM1046-.LFBB86
 9560               	.LM1046:
 9561 2aee CE01      		movw r24,r28
 9562 2af0 895A      		subi r24,-87
 9563 2af2 9F4F      		sbci r25,-1
 9564 2af4 FC01      		movw r30,r24
 9565 2af6 8081      		ld r24,Z
 9566 2af8 9181      		ldd r25,Z+1
 9567 2afa FC01      		movw r30,r24
 9568 2afc 8681      		ldd r24,Z+6
 9569 2afe 9781      		ldd r25,Z+7
 9570 2b00 9C01      		movw r18,r24
 9571 2b02 40E0      		ldi r20,0
 9572 2b04 69E0      		ldi r22,lo8(9)
GAS LISTING sboxnet2usb.s 			page 169


 9573 2b06 70E0      		ldi r23,0
 9574 2b08 80E0      		ldi r24,lo8(g_sboxnet)
 9575 2b0a 90E0      		ldi r25,hi8(g_sboxnet)
 9576 2b0c 0E94 0000 		call usb_ep_send_control_data
 9577               		.stabn	68,0,392,.LM1047-.LFBB86
 9578               	.LM1047:
 9579 2b10 80E0      		ldi r24,0
 9580 2b12 00C0      		rjmp .L384
 9581               	.L396:
 9582               		.stabn	68,0,396,.LM1048-.LFBB86
 9583               	.LM1048:
 9584 2b14 0E94 0000 		call usb_ep_clearSETUP
 9585               		.stabn	68,0,397,.LM1049-.LFBB86
 9586               	.LM1049:
 9587 2b18 CE01      		movw r24,r28
 9588 2b1a 895A      		subi r24,-87
 9589 2b1c 9F4F      		sbci r25,-1
 9590 2b1e FC01      		movw r30,r24
 9591 2b20 8081      		ld r24,Z
 9592 2b22 9181      		ldd r25,Z+1
 9593 2b24 FC01      		movw r30,r24
 9594 2b26 8681      		ldd r24,Z+6
 9595 2b28 9781      		ldd r25,Z+7
 9596 2b2a 9C01      		movw r18,r24
 9597 2b2c 40E0      		ldi r20,0
 9598 2b2e 62E0      		ldi r22,lo8(2)
 9599 2b30 71E0      		ldi r23,lo8(1)
 9600 2b32 80E0      		ldi r24,lo8(g_sboxnet+9)
 9601 2b34 90E0      		ldi r25,hi8(g_sboxnet+9)
 9602 2b36 0E94 0000 		call usb_ep_send_control_data
 9603               		.stabn	68,0,398,.LM1050-.LFBB86
 9604               	.LM1050:
 9605 2b3a 80E0      		ldi r24,0
 9606 2b3c 00C0      		rjmp .L384
 9607               	.L393:
 9608               		.stabn	68,0,401,.LM1051-.LFBB86
 9609               	.LM1051:
 9610 2b3e 0E94 0000 		call usb_ep_clearSETUP
 9611               		.stabn	68,0,402,.LM1052-.LFBB86
 9612               	.LM1052:
 9613 2b42 CE01      		movw r24,r28
 9614 2b44 895A      		subi r24,-87
 9615 2b46 9F4F      		sbci r25,-1
 9616 2b48 FC01      		movw r30,r24
 9617 2b4a 8081      		ld r24,Z
 9618 2b4c 9181      		ldd r25,Z+1
 9619 2b4e FC01      		movw r30,r24
 9620 2b50 8681      		ldd r24,Z+6
 9621 2b52 9781      		ldd r25,Z+7
 9622 2b54 9C01      		movw r18,r24
 9623 2b56 40E0      		ldi r20,0
 9624 2b58 62E0      		ldi r22,lo8(2)
 9625 2b5a 71E0      		ldi r23,lo8(1)
 9626 2b5c 80E0      		ldi r24,lo8(g_sboxnet+267)
 9627 2b5e 90E0      		ldi r25,hi8(g_sboxnet+267)
 9628 2b60 0E94 0000 		call usb_ep_send_control_data
 9629               		.stabn	68,0,403,.LM1053-.LFBB86
GAS LISTING sboxnet2usb.s 			page 170


 9630               	.LM1053:
 9631 2b64 80E0      		ldi r24,0
 9632 2b66 00C0      		rjmp .L384
 9633               	.L397:
 9634               	.LBB52:
 9635               		.stabn	68,0,407,.LM1054-.LFBB86
 9636               	.LM1054:
 9637 2b68 0E94 0000 		call usb_ep_clearSETUP
 9638               		.stabn	68,0,412,.LM1055-.LFBB86
 9639               	.LM1055:
 9640 2b6c 0E94 0000 		call stack_size
 9641 2b70 9C87      		std Y+12,r25
 9642 2b72 8B87      		std Y+11,r24
 9643               		.stabn	68,0,413,.LM1056-.LFBB86
 9644               	.LM1056:
 9645 2b74 0E94 0000 		call stack_free
 9646 2b78 9E87      		std Y+14,r25
 9647 2b7a 8D87      		std Y+13,r24
 9648               		.stabn	68,0,414,.LM1057-.LFBB86
 9649               	.LM1057:
 9650 2b7c CE01      		movw r24,r28
 9651 2b7e 895A      		subi r24,-87
 9652 2b80 9F4F      		sbci r25,-1
 9653 2b82 FC01      		movw r30,r24
 9654 2b84 8081      		ld r24,Z
 9655 2b86 9181      		ldd r25,Z+1
 9656 2b88 FC01      		movw r30,r24
 9657 2b8a 2681      		ldd r18,Z+6
 9658 2b8c 3781      		ldd r19,Z+7
 9659 2b8e CE01      		movw r24,r28
 9660 2b90 0B96      		adiw r24,11
 9661 2b92 40E0      		ldi r20,0
 9662 2b94 64E0      		ldi r22,lo8(4)
 9663 2b96 70E0      		ldi r23,0
 9664 2b98 0E94 0000 		call usb_ep_send_control_data
 9665               		.stabn	68,0,415,.LM1058-.LFBB86
 9666               	.LM1058:
 9667 2b9c 80E0      		ldi r24,0
 9668 2b9e 00C0      		rjmp .L384
 9669               	.L398:
 9670               	.LBE52:
 9671               	.LBB53:
 9672               		.stabn	68,0,419,.LM1059-.LFBB86
 9673               	.LM1059:
 9674 2ba0 0E94 0000 		call usb_ep_clearSETUP
 9675               		.stabn	68,0,424,.LM1060-.LFBB86
 9676               	.LM1060:
 9677 2ba4 CE01      		movw r24,r28
 9678 2ba6 4196      		adiw r24,17
 9679 2ba8 42E4      		ldi r20,lo8(66)
 9680 2baa 50E0      		ldi r21,0
 9681 2bac 6FEF      		ldi r22,lo8(-1)
 9682 2bae 70E0      		ldi r23,0
 9683 2bb0 0E94 0000 		call memset
 9684               		.stabn	68,0,426,.LM1061-.LFBB86
 9685               	.LM1061:
 9686 2bb4 CE01      		movw r24,r28
GAS LISTING sboxnet2usb.s 			page 171


 9687 2bb6 895A      		subi r24,-87
 9688 2bb8 9F4F      		sbci r25,-1
 9689 2bba FC01      		movw r30,r24
 9690 2bbc 8081      		ld r24,Z
 9691 2bbe 9181      		ldd r25,Z+1
 9692 2bc0 FC01      		movw r30,r24
 9693 2bc2 8681      		ldd r24,Z+6
 9694 2bc4 9781      		ldd r25,Z+7
 9695 2bc6 8134      		cpi r24,65
 9696 2bc8 9105      		cpc r25,__zero_reg__
 9697 2bca 00F0      		brlo .L421
 9698 2bcc 80E4      		ldi r24,lo8(64)
 9699 2bce 90E0      		ldi r25,0
 9700               	.L421:
 9701 2bd0 BE01      		movw r22,r28
 9702 2bd2 615F      		subi r22,-15
 9703 2bd4 7F4F      		sbci r23,-1
 9704 2bd6 9E01      		movw r18,r28
 9705 2bd8 2F5E      		subi r18,-17
 9706 2bda 3F4F      		sbci r19,-1
 9707 2bdc 2E5F      		subi r18,-2
 9708 2bde 3F4F      		sbci r19,-1
 9709 2be0 AC01      		movw r20,r24
 9710 2be2 C901      		movw r24,r18
 9711 2be4 0E94 0000 		call usb_ep_recv_control_data
 9712               		.stabn	68,0,427,.LM1062-.LFBB86
 9713               	.LM1062:
 9714 2be8 8F85      		ldd r24,Y+15
 9715 2bea 9889      		ldd r25,Y+16
 9716 2bec 8E5F      		subi r24,lo8(-(2))
 9717 2bee 898B      		std Y+17,r24
 9718               		.stabn	68,0,428,.LM1063-.LFBB86
 9719               	.LM1063:
 9720 2bf0 83E0      		ldi r24,lo8(3)
 9721 2bf2 8A8B      		std Y+18,r24
 9722               		.stabn	68,0,429,.LM1064-.LFBB86
 9723               	.LM1064:
 9724 2bf4 8F85      		ldd r24,Y+15
 9725 2bf6 9889      		ldd r25,Y+16
 9726 2bf8 9C01      		movw r18,r24
 9727 2bfa 2E5F      		subi r18,-2
 9728 2bfc 3F4F      		sbci r19,-1
 9729 2bfe CE01      		movw r24,r28
 9730 2c00 4196      		adiw r24,17
 9731 2c02 A901      		movw r20,r18
 9732 2c04 60E0      		ldi r22,lo8(eeprom)
 9733 2c06 70E0      		ldi r23,hi8(eeprom)
 9734 2c08 0E94 0000 		call eeprom_update_block
 9735               		.stabn	68,0,430,.LM1065-.LFBB86
 9736               	.LM1065:
 9737 2c0c 80E0      		ldi r24,0
 9738 2c0e 00C0      		rjmp .L384
 9739               	.L422:
 9740               	.LBE53:
 9741               		.stabn	68,0,444,.LM1066-.LFBB86
 9742               	.LM1066:
 9743 2c10 81E0      		ldi r24,lo8(1)
GAS LISTING sboxnet2usb.s 			page 172


 9744               	.L384:
 9745               	/* epilogue start */
 9746               		.stabn	68,0,445,.LM1067-.LFBB86
 9747               	.LM1067:
 9748 2c12 C85A      		subi r28,-88
 9749 2c14 DF4F      		sbci r29,-1
 9750 2c16 0FB6      		in __tmp_reg__,__SREG__
 9751 2c18 F894      		cli
 9752 2c1a DEBF      		out __SP_H__,r29
 9753 2c1c 0FBE      		out __SREG__,__tmp_reg__
 9754 2c1e CDBF      		out __SP_L__,r28
 9755 2c20 DF91      		pop r29
 9756 2c22 CF91      		pop r28
 9757 2c24 0895      		ret
 9758               		.size	usb_event_ep0_request, .-usb_event_ep0_request
 9759               		.stabs	"sreg_save:(2,2)",128,0,286,6
 9760               		.stabs	"__ToDo:(2,2)",128,0,286,1
 9761               		.stabn	192,0,0,.LBB47-.LFBB86
 9762               		.stabn	224,0,0,.LBE47-.LFBB86
 9763               		.stabs	"st:(2,2)",128,0,315,7
 9764               		.stabn	192,0,0,.LBB48-.LFBB86
 9765               		.stabn	224,0,0,.LBE48-.LFBB86
 9766               		.stabs	"wlen:(2,4)",128,0,323,2
 9767               		.stabs	"usbrc:(2,2)",128,0,324,4
 9768               		.stabs	"buf:(0,68)=s1status:(2,2),0,8;;",128,0,327,8
 9769               		.stabn	192,0,0,.LBB49-.LFBB86
 9770               		.stabs	"buf:(0,69)=s70msglen:(2,1),0,8;msg:(13,5),8,552;;",128,0,339,17
 9771               		.stabs	"maxs:(2,2)",128,0,340,5
 9772               		.stabn	192,0,0,.LBB50-.LFBB86
 9773               		.stabn	224,0,0,.LBE50-.LFBB86
 9774               		.stabn	224,0,0,.LBE49-.LFBB86
 9775               		.stabs	"msg:(13,5)",128,0,366,17
 9776               		.stabs	"readb:(2,4)",128,0,367,9
 9777               		.stabn	192,0,0,.LBB51-.LFBB86
 9778               		.stabn	224,0,0,.LBE51-.LFBB86
 9779               		.stabs	"buf:(0,70)=s4size:(2,4),0,16;free:(2,4),16,16;;",128,0,411,11
 9780               		.stabn	192,0,0,.LBB52-.LFBB86
 9781               		.stabn	224,0,0,.LBE52-.LFBB86
 9782               		.stabs	"buf:(0,71)=s66desc:(16,7),0,16;str:(0,52),16,512;;",128,0,423,17
 9783               		.stabs	"readb:(2,4)",128,0,425,15
 9784               		.stabn	192,0,0,.LBB53-.LFBB86
 9785               		.stabn	224,0,0,.LBE53-.LFBB86
 9786               	.Lscope86:
 9787               		.stabs	"",36,0,0,.Lscope86-.LFBB86
 9788               		.stabd	78,0,0
 9789               		.stabs	"__vector_18:F(0,49)",36,0,448,__vector_18
 9790               	.global	__vector_18
 9791               		.type	__vector_18, @function
 9792               	__vector_18:
 9793               		.stabd	46,0,0
 9794               		.stabn	68,0,448,.LM1068-.LFBB87
 9795               	.LM1068:
 9796               	.LFBB87:
 9797 2c26 1F92      		push r1
 9798 2c28 0F92      		push r0
 9799 2c2a 0090 5F00 		lds r0,95
 9800 2c2e 0F92      		push r0
GAS LISTING sboxnet2usb.s 			page 173


 9801 2c30 1124      		clr __zero_reg__
 9802 2c32 2F93      		push r18
 9803 2c34 3F93      		push r19
 9804 2c36 8F93      		push r24
 9805 2c38 9F93      		push r25
 9806 2c3a EF93      		push r30
 9807 2c3c FF93      		push r31
 9808 2c3e CF93      		push r28
 9809 2c40 DF93      		push r29
 9810 2c42 CDB7      		in r28,__SP_L__
 9811 2c44 DEB7      		in r29,__SP_H__
 9812               	/* prologue: Signal */
 9813               	/* frame size = 0 */
 9814               	/* stack size = 11 */
 9815               	.L__stack_usage = 11
 9816               		.stabn	68,0,450,.LM1069-.LFBB87
 9817               	.LM1069:
 9818 2c46 8091 0000 		lds r24,g_timer
 9819 2c4a 8F5F      		subi r24,lo8(-(1))
 9820 2c4c 8093 0000 		sts g_timer,r24
 9821               		.stabn	68,0,452,.LM1070-.LFBB87
 9822               	.LM1070:
 9823 2c50 8091 0000 		lds r24,g_timer
 9824 2c54 882F      		mov r24,r24
 9825 2c56 90E0      		ldi r25,0
 9826 2c58 8F70      		andi r24,15
 9827 2c5a 9927      		clr r25
 9828 2c5c 892B      		or r24,r25
 9829 2c5e 01F4      		brne .L424
 9830               		.stabn	68,0,453,.LM1071-.LFBB87
 9831               	.LM1071:
 9832 2c60 85E2      		ldi r24,lo8(37)
 9833 2c62 90E0      		ldi r25,0
 9834 2c64 25E2      		ldi r18,lo8(37)
 9835 2c66 30E0      		ldi r19,0
 9836 2c68 F901      		movw r30,r18
 9837 2c6a 3081      		ld r19,Z
 9838 2c6c 20E2      		ldi r18,lo8(32)
 9839 2c6e 2327      		eor r18,r19
 9840 2c70 FC01      		movw r30,r24
 9841 2c72 2083      		st Z,r18
 9842               	.L424:
 9843               		.stabn	68,0,456,.LM1072-.LFBB87
 9844               	.LM1072:
 9845 2c74 8091 0000 		lds r24,g_timer_led_msg_read
 9846 2c78 8823      		tst r24
 9847 2c7a 01F0      		breq .L425
 9848               		.stabn	68,0,457,.LM1073-.LFBB87
 9849               	.LM1073:
 9850 2c7c 8091 0000 		lds r24,g_timer_led_msg_read
 9851 2c80 8150      		subi r24,lo8(-(-1))
 9852 2c82 8093 0000 		sts g_timer_led_msg_read,r24
 9853               		.stabn	68,0,458,.LM1074-.LFBB87
 9854               	.LM1074:
 9855 2c86 8091 0000 		lds r24,g_timer_led_msg_read
 9856 2c8a 8823      		tst r24
 9857 2c8c 01F4      		brne .L425
GAS LISTING sboxnet2usb.s 			page 174


 9858               		.stabn	68,0,459,.LM1075-.LFBB87
 9859               	.LM1075:
 9860 2c8e 85E2      		ldi r24,lo8(37)
 9861 2c90 90E0      		ldi r25,0
 9862 2c92 25E2      		ldi r18,lo8(37)
 9863 2c94 30E0      		ldi r19,0
 9864 2c96 F901      		movw r30,r18
 9865 2c98 2081      		ld r18,Z
 9866 2c9a 2F7B      		andi r18,lo8(-65)
 9867 2c9c FC01      		movw r30,r24
 9868 2c9e 2083      		st Z,r18
 9869               	.L425:
 9870               		.stabn	68,0,462,.LM1076-.LFBB87
 9871               	.LM1076:
 9872 2ca0 8091 0000 		lds r24,g_timer_led_msg_write
 9873 2ca4 8823      		tst r24
 9874 2ca6 01F0      		breq .L427
 9875               		.stabn	68,0,463,.LM1077-.LFBB87
 9876               	.LM1077:
 9877 2ca8 8091 0000 		lds r24,g_timer_led_msg_write
 9878 2cac 8150      		subi r24,lo8(-(-1))
 9879 2cae 8093 0000 		sts g_timer_led_msg_write,r24
 9880               		.stabn	68,0,464,.LM1078-.LFBB87
 9881               	.LM1078:
 9882 2cb2 8091 0000 		lds r24,g_timer_led_msg_write
 9883 2cb6 8823      		tst r24
 9884 2cb8 01F4      		brne .L427
 9885               		.stabn	68,0,465,.LM1079-.LFBB87
 9886               	.LM1079:
 9887 2cba 85E2      		ldi r24,lo8(37)
 9888 2cbc 90E0      		ldi r25,0
 9889 2cbe 25E2      		ldi r18,lo8(37)
 9890 2cc0 30E0      		ldi r19,0
 9891 2cc2 F901      		movw r30,r18
 9892 2cc4 2081      		ld r18,Z
 9893 2cc6 2F77      		andi r18,lo8(127)
 9894 2cc8 FC01      		movw r30,r24
 9895 2cca 2083      		st Z,r18
 9896               	.L427:
 9897               		.stabn	68,0,467,.LM1080-.LFBB87
 9898               	.LM1080:
 9899 2ccc 0000      		nop
 9900               	/* epilogue start */
 9901 2cce DF91      		pop r29
 9902 2cd0 CF91      		pop r28
 9903 2cd2 FF91      		pop r31
 9904 2cd4 EF91      		pop r30
 9905 2cd6 9F91      		pop r25
 9906 2cd8 8F91      		pop r24
 9907 2cda 3F91      		pop r19
 9908 2cdc 2F91      		pop r18
 9909 2cde 0F90      		pop r0
 9910 2ce0 0092 5F00 		sts 95,r0
 9911 2ce4 0F90      		pop r0
 9912 2ce6 1F90      		pop r1
 9913 2ce8 1895      		reti
 9914               		.size	__vector_18, .-__vector_18
GAS LISTING sboxnet2usb.s 			page 175


 9915               	.Lscope87:
 9916               		.stabs	"",36,0,0,.Lscope87-.LFBB87
 9917               		.stabd	78,0,0
 9918               		.stabs	"init_system:f(0,49)",36,0,470,init_system
 9919               		.type	init_system, @function
 9920               	init_system:
 9921               		.stabd	46,0,0
 9922               		.stabn	68,0,470,.LM1081-.LFBB88
 9923               	.LM1081:
 9924               	.LFBB88:
 9925 2cea CF93      		push r28
 9926 2cec DF93      		push r29
 9927 2cee 1F92      		push __zero_reg__
 9928 2cf0 CDB7      		in r28,__SP_L__
 9929 2cf2 DEB7      		in r29,__SP_H__
 9930               	/* prologue: function */
 9931               	/* frame size = 1 */
 9932               	/* stack size = 3 */
 9933               	.L__stack_usage = 3
 9934               		.stabn	68,0,471,.LM1082-.LFBB88
 9935               	.LM1082:
 9936               	/* #APP */
 9937               	 ;  471 "sboxnet2usb.c" 1
 9938 2cf4 A895      		wdr
 9939               	 ;  0 "" 2
 9940               		.stabn	68,0,472,.LM1083-.LFBB88
 9941               	.LM1083:
 9942               	/* #NOAPP */
 9943 2cf6 84E5      		ldi r24,lo8(84)
 9944 2cf8 90E0      		ldi r25,0
 9945 2cfa FC01      		movw r30,r24
 9946 2cfc 8081      		ld r24,Z
 9947               		.stabn	68,0,472,.LM1084-.LFBB88
 9948               	.LM1084:
 9949 2cfe 8983      		std Y+1,r24
 9950               		.stabn	68,0,473,.LM1085-.LFBB88
 9951               	.LM1085:
 9952 2d00 84E5      		ldi r24,lo8(84)
 9953 2d02 90E0      		ldi r25,0
 9954               		.stabn	68,0,473,.LM1086-.LFBB88
 9955               	.LM1086:
 9956 2d04 FC01      		movw r30,r24
 9957 2d06 1082      		st Z,__zero_reg__
 9958               	.LBB54:
 9959               	.LBB55:
 9960               	.LBB56:
 9961               		.stabs	"/usr/lib/avr/include/avr/wdt.h",132,0,0,.Ltext9
 9962               	.Ltext9:
 9963               		.stabn	68,0,470,.LM1087-.LFBB88
 9964               	.LM1087:
 9965               	/* #APP */
 9966               	 ;  470 "/usr/lib/avr/include/avr/wdt.h" 1
 9967 2d08 0FB6      		in __tmp_reg__,__SREG__
 9968 2d0a F894      		cli
 9969 2d0c A895      		wdr
 9970 2d0e 8091 6000 		lds r24,96
 9971 2d12 8861      		ori r24,24
GAS LISTING sboxnet2usb.s 			page 176


 9972 2d14 8093 6000 		sts 96,r24
 9973 2d18 1092 6000 		sts 96,__zero_reg__
 9974 2d1c 0FBE      		out __SREG__,__tmp_reg__
 9975               		
 9976               	 ;  0 "" 2
 9977               	/* #NOAPP */
 9978               	.LBE56:
 9979               	.LBE55:
 9980               	.LBE54:
 9981               		.stabs	"sboxnet2usb.c",132,0,0,.Ltext10
 9982               	.Ltext10:
 9983               		.stabn	68,0,475,.LM1088-.LFBB88
 9984               	.LM1088:
 9985 2d1e CE01      		movw r24,r28
 9986 2d20 0196      		adiw r24,1
 9987 2d22 FC01      		movw r30,r24
 9988 2d24 8081      		ld r24,Z
 9989               		.stabn	68,0,475,.LM1089-.LFBB88
 9990               	.LM1089:
 9991 2d26 882F      		mov r24,r24
 9992 2d28 90E0      		ldi r25,0
 9993 2d2a 8870      		andi r24,8
 9994 2d2c 9927      		clr r25
 9995               		.stabn	68,0,475,.LM1090-.LFBB88
 9996               	.LM1090:
 9997 2d2e 892B      		or r24,r25
 9998 2d30 01F0      		breq .L429
 9999               		.stabn	68,0,477,.LM1091-.LFBB88
 10000               	.LM1091:
 10001               	/* #APP */
 10002               	 ;  477 "sboxnet2usb.c" 1
 10003 2d32 0C94 0018 		jmp  0x3000
 10004               	
 10005               	 ;  0 "" 2
 10006               	/* #NOAPP */
 10007               	.L429:
 10008               		.stabn	68,0,482,.LM1092-.LFBB88
 10009               	.LM1092:
 10010 2d36 85E2      		ldi r24,lo8(37)
 10011 2d38 90E0      		ldi r25,0
 10012               		.stabn	68,0,482,.LM1093-.LFBB88
 10013               	.LM1093:
 10014 2d3a 2FE1      		ldi r18,lo8(31)
 10015 2d3c FC01      		movw r30,r24
 10016 2d3e 2083      		st Z,r18
 10017               		.stabn	68,0,483,.LM1094-.LFBB88
 10018               	.LM1094:
 10019 2d40 88E2      		ldi r24,lo8(40)
 10020 2d42 90E0      		ldi r25,0
 10021               		.stabn	68,0,483,.LM1095-.LFBB88
 10022               	.LM1095:
 10023 2d44 2FEF      		ldi r18,lo8(-1)
 10024 2d46 FC01      		movw r30,r24
 10025 2d48 2083      		st Z,r18
 10026               		.stabn	68,0,484,.LM1096-.LFBB88
 10027               	.LM1096:
 10028 2d4a 8BE2      		ldi r24,lo8(43)
GAS LISTING sboxnet2usb.s 			page 177


 10029 2d4c 90E0      		ldi r25,0
 10030               		.stabn	68,0,484,.LM1097-.LFBB88
 10031               	.LM1097:
 10032 2d4e 2FE7      		ldi r18,lo8(127)
 10033 2d50 FC01      		movw r30,r24
 10034 2d52 2083      		st Z,r18
 10035               		.stabn	68,0,485,.LM1098-.LFBB88
 10036               	.LM1098:
 10037 2d54 84E2      		ldi r24,lo8(36)
 10038 2d56 90E0      		ldi r25,0
 10039               		.stabn	68,0,485,.LM1099-.LFBB88
 10040               	.LM1099:
 10041 2d58 20EE      		ldi r18,lo8(-32)
 10042 2d5a FC01      		movw r30,r24
 10043 2d5c 2083      		st Z,r18
 10044               		.stabn	68,0,486,.LM1100-.LFBB88
 10045               	.LM1100:
 10046 2d5e 87E2      		ldi r24,lo8(39)
 10047 2d60 90E0      		ldi r25,0
 10048               		.stabn	68,0,486,.LM1101-.LFBB88
 10049               	.LM1101:
 10050 2d62 FC01      		movw r30,r24
 10051 2d64 1082      		st Z,__zero_reg__
 10052               		.stabn	68,0,487,.LM1102-.LFBB88
 10053               	.LM1102:
 10054 2d66 8AE2      		ldi r24,lo8(42)
 10055 2d68 90E0      		ldi r25,0
 10056               		.stabn	68,0,487,.LM1103-.LFBB88
 10057               	.LM1103:
 10058 2d6a FC01      		movw r30,r24
 10059 2d6c 1082      		st Z,__zero_reg__
 10060               		.stabn	68,0,490,.LM1104-.LFBB88
 10061               	.LM1104:
 10062 2d6e 81E6      		ldi r24,lo8(97)
 10063 2d70 90E0      		ldi r25,0
 10064               		.stabn	68,0,490,.LM1105-.LFBB88
 10065               	.LM1105:
 10066 2d72 20E8      		ldi r18,lo8(-128)
 10067 2d74 FC01      		movw r30,r24
 10068 2d76 2083      		st Z,r18
 10069               		.stabn	68,0,494,.LM1106-.LFBB88
 10070               	.LM1106:
 10071 2d78 81E6      		ldi r24,lo8(97)
 10072 2d7a 90E0      		ldi r25,0
 10073               		.stabn	68,0,494,.LM1107-.LFBB88
 10074               	.LM1107:
 10075 2d7c FC01      		movw r30,r24
 10076 2d7e 1082      		st Z,__zero_reg__
 10077               		.stabn	68,0,498,.LM1108-.LFBB88
 10078               	.LM1108:
 10079 2d80 80E8      		ldi r24,lo8(-128)
 10080 2d82 90E0      		ldi r25,0
 10081               		.stabn	68,0,498,.LM1109-.LFBB88
 10082               	.LM1109:
 10083 2d84 FC01      		movw r30,r24
 10084 2d86 1082      		st Z,__zero_reg__
 10085               		.stabn	68,0,499,.LM1110-.LFBB88
GAS LISTING sboxnet2usb.s 			page 178


 10086               	.LM1110:
 10087 2d88 81E8      		ldi r24,lo8(-127)
 10088 2d8a 90E0      		ldi r25,0
 10089               		.stabn	68,0,499,.LM1111-.LFBB88
 10090               	.LM1111:
 10091 2d8c 22E0      		ldi r18,lo8(2)
 10092 2d8e FC01      		movw r30,r24
 10093 2d90 2083      		st Z,r18
 10094               		.stabn	68,0,500,.LM1112-.LFBB88
 10095               	.LM1112:
 10096 2d92 86E3      		ldi r24,lo8(54)
 10097 2d94 90E0      		ldi r25,0
 10098               		.stabn	68,0,500,.LM1113-.LFBB88
 10099               	.LM1113:
 10100 2d96 2FEF      		ldi r18,lo8(-1)
 10101 2d98 FC01      		movw r30,r24
 10102 2d9a 2083      		st Z,r18
 10103               		.stabn	68,0,501,.LM1114-.LFBB88
 10104               	.LM1114:
 10105 2d9c 8FE6      		ldi r24,lo8(111)
 10106 2d9e 90E0      		ldi r25,0
 10107               		.stabn	68,0,501,.LM1115-.LFBB88
 10108               	.LM1115:
 10109 2da0 21E0      		ldi r18,lo8(1)
 10110 2da2 FC01      		movw r30,r24
 10111 2da4 2083      		st Z,r18
 10112               		.stabn	68,0,503,.LM1116-.LFBB88
 10113               	.LM1116:
 10114 2da6 80E0      		ldi r24,lo8(eeprom)
 10115 2da8 90E0      		ldi r25,hi8(eeprom)
 10116 2daa 0E94 0000 		call eeprom_read_word
 10117 2dae 0196      		adiw r24,1
 10118 2db0 01F4      		brne .L431
 10119               		.stabn	68,0,505,.LM1117-.LFBB88
 10120               	.LM1117:
 10121 2db2 64E0      		ldi r22,lo8(4)
 10122 2db4 80E0      		ldi r24,lo8(eeprom)
 10123 2db6 90E0      		ldi r25,hi8(eeprom)
 10124 2db8 0E94 0000 		call eeprom_update_byte
 10125               		.stabn	68,0,506,.LM1118-.LFBB88
 10126               	.LM1118:
 10127 2dbc 63E0      		ldi r22,lo8(3)
 10128 2dbe 80E0      		ldi r24,lo8(eeprom+1)
 10129 2dc0 90E0      		ldi r25,hi8(eeprom+1)
 10130 2dc2 0E94 0000 		call eeprom_update_byte
 10131               		.stabn	68,0,507,.LM1119-.LFBB88
 10132               	.LM1119:
 10133 2dc6 68E7      		ldi r22,lo8(120)
 10134 2dc8 70E0      		ldi r23,0
 10135 2dca 80E0      		ldi r24,lo8(eeprom+2)
 10136 2dcc 90E0      		ldi r25,hi8(eeprom+2)
 10137 2dce 0E94 0000 		call eeprom_update_word
 10138               	.L431:
 10139               		.stabn	68,0,509,.LM1120-.LFBB88
 10140               	.LM1120:
 10141 2dd2 0000      		nop
 10142               	/* epilogue start */
GAS LISTING sboxnet2usb.s 			page 179


 10143 2dd4 0F90      		pop __tmp_reg__
 10144 2dd6 DF91      		pop r29
 10145 2dd8 CF91      		pop r28
 10146 2dda 0895      		ret
 10147               		.size	init_system, .-init_system
 10148               		.stabs	"mcusr:(2,2)",128,0,472,1
 10149               		.stabn	192,0,0,.LFBB88-.LFBB88
 10150               		.stabn	224,0,0,.Lscope88-.LFBB88
 10151               	.Lscope88:
 10152               		.stabs	"",36,0,0,.Lscope88-.LFBB88
 10153               		.stabd	78,0,0
 10154               		.stabs	"main:F(0,1)",36,0,511,main
 10155               	.global	main
 10156               		.type	main, @function
 10157               	main:
 10158               		.stabd	46,0,0
 10159               		.stabn	68,0,511,.LM1121-.LFBB89
 10160               	.LM1121:
 10161               	.LFBB89:
 10162 2ddc CF92      		push r12
 10163 2dde EF92      		push r14
 10164 2de0 FF92      		push r15
 10165 2de2 0F93      		push r16
 10166 2de4 CF93      		push r28
 10167 2de6 DF93      		push r29
 10168 2de8 CDB7      		in r28,__SP_L__
 10169 2dea DEB7      		in r29,__SP_H__
 10170               	/* prologue: function */
 10171               	/* frame size = 0 */
 10172               	/* stack size = 6 */
 10173               	.L__stack_usage = 6
 10174               		.stabn	68,0,512,.LM1122-.LFBB89
 10175               	.LM1122:
 10176               	/* #APP */
 10177               	 ;  512 "sboxnet2usb.c" 1
 10178 2dec F894      		cli
 10179               	 ;  0 "" 2
 10180               		.stabn	68,0,513,.LM1123-.LFBB89
 10181               	.LM1123:
 10182               	/* #NOAPP */
 10183 2dee 0E94 0000 		call init_system
 10184               		.stabn	68,0,515,.LM1124-.LFBB89
 10185               	.LM1124:
 10186 2df2 CC24      		clr r12
 10187 2df4 C394      		inc r12
 10188 2df6 0F2E      		mov __tmp_reg__,r31
 10189 2df8 F0E0      		ldi r31,lo8(gs(get_string))
 10190 2dfa EF2E      		mov r14,r31
 10191 2dfc F0E0      		ldi r31,hi8(gs(get_string))
 10192 2dfe FF2E      		mov r15,r31
 10193 2e00 F02D      		mov r31,__tmp_reg__
 10194 2e02 03E0      		ldi r16,lo8(3)
 10195 2e04 20E0      		ldi r18,lo8(g_strings_P)
 10196 2e06 30E0      		ldi r19,hi8(g_strings_P)
 10197 2e08 42E1      		ldi r20,lo8(18)
 10198 2e0a 60E0      		ldi r22,lo8(g_config_1_P)
 10199 2e0c 70E0      		ldi r23,hi8(g_config_1_P)
GAS LISTING sboxnet2usb.s 			page 180


 10200 2e0e 80E0      		ldi r24,lo8(g_device_desc_P)
 10201 2e10 90E0      		ldi r25,hi8(g_device_desc_P)
 10202 2e12 0E94 0000 		call usb_init
 10203               		.stabn	68,0,520,.LM1125-.LFBB89
 10204               	.LM1125:
 10205 2e16 83E5      		ldi r24,lo8(83)
 10206 2e18 90E0      		ldi r25,0
 10207 2e1a 23E5      		ldi r18,lo8(83)
 10208 2e1c 30E0      		ldi r19,0
 10209 2e1e F901      		movw r30,r18
 10210 2e20 2081      		ld r18,Z
 10211 2e22 217F      		andi r18,lo8(-15)
 10212 2e24 FC01      		movw r30,r24
 10213 2e26 2083      		st Z,r18
 10214               		.stabn	68,0,521,.LM1126-.LFBB89
 10215               	.LM1126:
 10216 2e28 83E5      		ldi r24,lo8(83)
 10217 2e2a 90E0      		ldi r25,0
 10218 2e2c 23E5      		ldi r18,lo8(83)
 10219 2e2e 30E0      		ldi r19,0
 10220 2e30 F901      		movw r30,r18
 10221 2e32 2081      		ld r18,Z
 10222 2e34 2160      		ori r18,lo8(1)
 10223 2e36 FC01      		movw r30,r24
 10224 2e38 2083      		st Z,r18
 10225               		.stabn	68,0,522,.LM1127-.LFBB89
 10226               	.LM1127:
 10227               	/* #APP */
 10228               	 ;  522 "sboxnet2usb.c" 1
 10229 2e3a 7894      		sei
 10230               	 ;  0 "" 2
 10231               	/* #NOAPP */
 10232               	.L433:
 10233               		.stabn	68,0,525,.LM1128-.LFBB89
 10234               	.LM1128:
 10235 2e3c 0E94 0000 		call usb_ep0_task
 10236               		.stabn	68,0,526,.LM1129-.LFBB89
 10237               	.LM1129:
 10238 2e40 00C0      		rjmp .L433
 10239               		.size	main, .-main
 10240               	.Lscope89:
 10241               		.stabs	"",36,0,0,.Lscope89-.LFBB89
 10242               		.stabd	78,0,0
 10243               		.section	.progmem.data,"a",@progbits
 10244               		.type	epsizemap.2726, @object
 10245               		.size	epsizemap.2726, 4
 10246               	epsizemap.2726:
 10247 008e 08        		.byte	8
 10248 008f 10        		.byte	16
 10249 0090 20        		.byte	32
 10250 0091 40        		.byte	64
 10251               		.stabs	"g_sboxnet_addr:G(2,2)",32,0,53,0
 10252               		.stabs	"g_sboxnet:G(12,6)",32,0,54,0
 10253               		.stabs	"g_sboxnet_flags:G(2,2)",32,0,121,0
 10254               		.stabs	"g_sboxnet_status:G(2,2)",32,0,130,0
 10255               		.stabs	"g_timer:G(2,2)",32,0,132,0
 10256               		.stabs	"g_timer_led_msg_read:G(2,2)",32,0,133,0
GAS LISTING sboxnet2usb.s 			page 181


 10257               		.stabs	"g_timer_led_msg_write:G(2,2)",32,0,134,0
 10258               		.stabs	"g_usb_dev:G(16,12)",32,0,40,0
 10259               		.stabs	"eeprom:G(0,53)",32,0,194,0
 10260               		.stabs	"g_device_desc_P:G(16,15)",32,0,199,0
 10261               		.stabs	"g_config_1_P:G(0,72)=k(0,54)",32,0,218,0
 10262               		.stabs	"g_string0_P:G(0,73)=k(0,74)=s2d:(16,7),0,16;;",32,0,243,0
 10263               		.stabs	"g_string1_P:G(0,75)=k(0,76)=s2d:(16,7),0,16;;",32,0,244,0
 10264               		.stabs	"g_string2_P:G(0,77)=k(0,78)=s2d:(16,7),0,16;;",32,0,245,0
 10265               		.stabs	"g_strings_P:G(0,79)=ar(13,4);0;2;(16,19)",32,0,248,0
 10266               		.text
 10267               		.stabs	"",100,0,0,.Letext0
 10268               	.Letext0:
 10269               		.ident	"GCC: (GNU) 5.4.0"
 10270               	.global __do_clear_bss
GAS LISTING sboxnet2usb.s 			page 182


DEFINED SYMBOLS
                            *ABS*:0000000000000000 sboxnet2usb.c
       sboxnet2usb.s:2      *ABS*:000000000000003e __SP_H__
       sboxnet2usb.s:3      *ABS*:000000000000003d __SP_L__
       sboxnet2usb.s:4      *ABS*:000000000000003f __SREG__
       sboxnet2usb.s:5      *ABS*:0000000000000000 __tmp_reg__
       sboxnet2usb.s:6      *ABS*:0000000000000001 __zero_reg__
                            *COM*:0000000000000001 g_sboxnet_addr
                            *COM*:0000000000000233 g_sboxnet
       sboxnet2usb.s:156    .text:0000000000000000 _crc_ibutton_update
       sboxnet2usb.s:218    .text:000000000000003a __iCliRetVal
       sboxnet2usb.s:256    .text:000000000000004c __iRestore
       sboxnet2usb.s:300    .text:0000000000000076 prng_xorshift8
       sboxnet2usb.s:360    .text:00000000000000b6 sboxnet_debug_inc_recverrors
       sboxnet2usb.s:395    .text:00000000000000d8 sboxnet_debug_inc_recverr_dor
       sboxnet2usb.s:428    .text:00000000000000fa sboxnet_debug_inc_recv_byte
       sboxnet2usb.s:461    .text:000000000000011c sboxnet_crc8_init
       sboxnet2usb.s:491    .text:000000000000012c sboxnet_crc8_add
       sboxnet2usb.s:527    .text:000000000000014c sboxnet_crc8_ok
       sboxnet2usb.s:563    .text:000000000000016a sboxnet_prandom
       sboxnet2usb.s:598    .text:0000000000000188 sboxnet_rb_init
       sboxnet2usb.s:682    .text:00000000000001ea sboxnet_rb_getcount
       sboxnet2usb.s:719    .text:000000000000020a sboxnet_rb_getfree
       sboxnet2usb.s:768    .text:0000000000000242 sboxnet_rb_write_commit
       sboxnet2usb.s:862    .text:00000000000002c6 sboxnet_rb_write_rollback
       sboxnet2usb.s:911    .text:00000000000002f8 sboxnet_rb_write
       sboxnet2usb.s:1047   .text:00000000000003ac sboxnet_rb_put_first
       sboxnet2usb.s:1098   .text:00000000000003e8 sboxnet_rb_write_count
       sboxnet2usb.s:1135   .text:0000000000000408 sboxnet_rb_read_commit
       sboxnet2usb.s:1216   .text:0000000000000472 sboxnet_rb_read_rollback
       sboxnet2usb.s:1264   .text:00000000000004a4 sboxnet_rb_read
       sboxnet2usb.s:1384   .text:0000000000000544 sboxnet_rb_read_getone
       sboxnet2usb.s:1462   .text:00000000000005a0 sboxnet_rb_can_read_bytes
       sboxnet2usb.s:1505   .text:00000000000005ce sboxnet_receiver_enable
       sboxnet2usb.s:1553   .text:0000000000000602 sboxnet_init
       sboxnet2usb.s:1773   .text:0000000000000728 sboxnet_deinit
       sboxnet2usb.s:1890   .text:00000000000007b6 sboxnet_set_timer
       sboxnet2usb.s:1970   .text:0000000000000810 sboxnet_clear_line_sensor
       sboxnet2usb.s:2005   .text:000000000000082a sboxnet_line_sensor_changed
       sboxnet2usb.s:2038   .text:0000000000000842 sboxnet_set_backoff_with_offset
       sboxnet2usb.s:2083   .text:0000000000000872 sboxnet_intr_usart_rx
       sboxnet2usb.s:2558   .text:0000000000000b0c sboxnet_check_try_transmit
       sboxnet2usb.s:2697   .text:0000000000000bc6 sboxnet_intr_usart_tx
       sboxnet2usb.s:3261   .text:0000000000000f0e __vector_23
       sboxnet2usb.s:3324   .text:0000000000000f68 __vector_25
       sboxnet2usb.s:3386   .text:0000000000000fc2 sboxnet_timer_bit
       sboxnet2usb.s:3754   .text:00000000000011a4 sboxnet_receive_msg
       sboxnet2usb.s:4140   .text:0000000000001372 sboxnet_send_msg
       sboxnet2usb.s:4562   .text:0000000000001568 sboxnet_can_send_msg
       sboxnet2usb.s:4657   .text:00000000000015d2 sboxnet_all_sent
       sboxnet2usb.s:4693   .text:00000000000015f2 sboxnet_can_read
       sboxnet2usb.s:4771   .text:0000000000001640 sboxnet_can_send
       sboxnet2usb.s:4850   .text:000000000000168e sboxnet_set_sniffer_mode
       sboxnet2usb.s:4900   .text:00000000000016c0 __vector_16
       sboxnet2usb.s:4966   .bss:0000000000000000 g_sboxnet_flags
       sboxnet2usb.s:4971   .bss:0000000000000001 g_sboxnet_status
       sboxnet2usb.s:4976   .bss:0000000000000002 g_timer
GAS LISTING sboxnet2usb.s 			page 183


       sboxnet2usb.s:4981   .bss:0000000000000003 g_timer_led_msg_read
       sboxnet2usb.s:4986   .bss:0000000000000004 g_timer_led_msg_write
       sboxnet2usb.s:4991   .text:000000000000171a trigger_led_msg_read
       sboxnet2usb.s:5066   .text:000000000000176a trigger_led_msg_write
       sboxnet2usb.s:5141   .text:00000000000017ba stack_free
       sboxnet2usb.s:5221   .text:000000000000180c stack_size
       sboxnet2usb.s:5258   .init8:0000000000000000 stack_init8
       sboxnet2usb.s:5305   .text:000000000000182a usb_ep_isSETUP
       sboxnet2usb.s:5339   .text:0000000000001842 usb_ep_clearSETUP
       sboxnet2usb.s:5377   .text:0000000000001864 usb_ep_isIN
       sboxnet2usb.s:5409   .text:000000000000187c usb_ep_clearIN
       sboxnet2usb.s:5446   .text:000000000000189e usb_ep_clearFIFOCON
       sboxnet2usb.s:5483   .text:00000000000018c0 usb_ep_isOUT
       sboxnet2usb.s:5515   .text:00000000000018d8 usb_ep_clearOUT
       sboxnet2usb.s:5552   .text:00000000000018fa usb_ep_set_stall
       sboxnet2usb.s:5590   .text:000000000000191c usb_req_isOUT
       sboxnet2usb.s:5631   .text:0000000000001944 usb_req_isIN
                            *COM*:000000000000000d g_usb_dev
       sboxnet2usb.s:5672   .text:000000000000196a __vector_11
       sboxnet2usb.s:8371   .text:0000000000002576 usb_intr_endofreset
       sboxnet2usb.s:5868   .text:0000000000001a60 usb_ep_read_data
       sboxnet2usb.s:5937   .text:0000000000001aa8 usb_ep_waitIN
       sboxnet2usb.s:5990   .text:0000000000001ad6 usb_ep_send_zlp
       sboxnet2usb.s:6043   .text:0000000000001b00 usb_mem_read_byte
       sboxnet2usb.s:6136   .text:0000000000001b60 usb_ep_getbufsize
       sboxnet2usb.s:10246  .progmem.data:000000000000008e epsizemap.2726
       sboxnet2usb.s:6214   .text:0000000000001ba0 usb_ep_send_in_data
       sboxnet2usb.s:6387   .text:0000000000001c64 usb_ep_send_control_data_chunk
       sboxnet2usb.s:6582   .text:0000000000001d40 usb_ep_send_control_data_finish
       sboxnet2usb.s:6705   .text:0000000000001dbe usb_ep_send_control_data
       sboxnet2usb.s:6787   .text:0000000000001e20 usb_ep_recv_control_data_chunk
       sboxnet2usb.s:6981   .text:0000000000001f08 usb_ep_recv_control_data_finish
       sboxnet2usb.s:7016   .text:0000000000001f1e usb_ep_recv_control_data
       sboxnet2usb.s:7086   .text:0000000000001f72 usb_ep0_get_configuration
       sboxnet2usb.s:7159   .text:0000000000001fc0 usb_ep0_get_descriptor
       sboxnet2usb.s:7541   .text:00000000000021bc usb_ep0_set_address
       sboxnet2usb.s:7669   .text:000000000000224e usb_ep0_set_configuration
       sboxnet2usb.s:8870   .text:0000000000002738 usb_event_set_configuration
       sboxnet2usb.s:7834   .text:000000000000230e usb_ep0_task
       sboxnet2usb.s:8968   .text:0000000000002792 usb_event_ep0_request
       sboxnet2usb.s:8131   .text:000000000000245a usb_ep_setup
       sboxnet2usb.s:8307   .text:000000000000252c usb_ep_setup_control
       sboxnet2usb.s:8415   .text:0000000000002594 usb_init
       sboxnet2usb.s:8672   .eeprom:0000000000000000 eeprom
       sboxnet2usb.s:8678   .progmem.data:0000000000000000 g_device_desc_P
       sboxnet2usb.s:8696   .progmem.data:0000000000000012 g_config_1_P
       sboxnet2usb.s:8717   .progmem.data:0000000000000024 g_string0_P
       sboxnet2usb.s:8724   .progmem.data:0000000000000028 g_string1_P
       sboxnet2usb.s:8765   .progmem.data:000000000000006e g_string2_P
       sboxnet2usb.s:8784   .progmem.data:0000000000000088 g_strings_P
       sboxnet2usb.s:8794   .text:00000000000026dc get_string
       sboxnet2usb.s:8896   .text:0000000000002748 get_status
       sboxnet2usb.s:9792   .text:0000000000002c26 __vector_18
       sboxnet2usb.s:9920   .text:0000000000002cea init_system
       sboxnet2usb.s:10157  .text:0000000000002ddc main

UNDEFINED SYMBOLS
GAS LISTING sboxnet2usb.s 			page 184


memset
_end
__stack
eeprom_read_byte
eeprom_read_word
eeprom_update_block
eeprom_update_byte
eeprom_update_word
__do_clear_bss
